
robot.elf:     file format elf32-avr

Sections:
Idx Name          Size      VMA       LMA       File off  Algn
  0 .data         0000020e  00800100  00002c5a  00002cee  2**0
                  CONTENTS, ALLOC, LOAD, DATA
  1 .text         00002c5a  00000000  00000000  00000094  2**1
                  CONTENTS, ALLOC, LOAD, READONLY, CODE
  2 .bss          000001ed  0080030e  0080030e  00002efc  2**0
                  ALLOC
  3 .comment      0000006d  00000000  00000000  00002efc  2**0
                  CONTENTS, READONLY
  4 .note.gnu.avr.deviceinfo 0000003c  00000000  00000000  00002f6c  2**2
                  CONTENTS, READONLY
  5 .debug_aranges 000002a0  00000000  00000000  00002fa8  2**0
                  CONTENTS, READONLY, DEBUGGING
  6 .debug_info   00005601  00000000  00000000  00003248  2**0
                  CONTENTS, READONLY, DEBUGGING
  7 .debug_abbrev 0000210e  00000000  00000000  00008849  2**0
                  CONTENTS, READONLY, DEBUGGING
  8 .debug_line   00003d28  00000000  00000000  0000a957  2**0
                  CONTENTS, READONLY, DEBUGGING
  9 .debug_frame  00001984  00000000  00000000  0000e680  2**2
                  CONTENTS, READONLY, DEBUGGING
 10 .debug_str    00001953  00000000  00000000  00010004  2**0
                  CONTENTS, READONLY, DEBUGGING
 11 .debug_loc    0000390f  00000000  00000000  00011957  2**0
                  CONTENTS, READONLY, DEBUGGING
 12 .debug_ranges 000001c0  00000000  00000000  00015266  2**0
                  CONTENTS, READONLY, DEBUGGING

Disassembly of section .text:

00000000 <__vectors>:
       0:	4b c0       	rjmp	.+150    	; 0x98 <__ctors_end>
       2:	00 00       	nop
       4:	c7 c5       	rjmp	.+2958   	; 0xb94 <__vector_1>
       6:	00 00       	nop
       8:	ee c5       	rjmp	.+3036   	; 0xbe6 <__vector_2>
       a:	00 00       	nop
       c:	15 c6       	rjmp	.+3114   	; 0xc38 <__vector_3>
       e:	00 00       	nop
      10:	3c c6       	rjmp	.+3192   	; 0xc8a <__vector_4>
      12:	00 00       	nop
      14:	63 c6       	rjmp	.+3270   	; 0xcdc <__vector_5>
      16:	00 00       	nop
      18:	8a c6       	rjmp	.+3348   	; 0xd2e <__vector_6>
      1a:	00 00       	nop
      1c:	b1 c6       	rjmp	.+3426   	; 0xd80 <__vector_7>
      1e:	00 00       	nop
      20:	d8 c6       	rjmp	.+3504   	; 0xdd2 <__vector_8>
      22:	00 00       	nop
      24:	ff c6       	rjmp	.+3582   	; 0xe24 <__vector_9>
      26:	00 00       	nop
      28:	26 c7       	rjmp	.+3660   	; 0xe76 <__vector_10>
      2a:	00 00       	nop
      2c:	4d c7       	rjmp	.+3738   	; 0xec8 <__vector_11>
      2e:	00 00       	nop
      30:	74 c7       	rjmp	.+3816   	; 0xf1a <__vector_12>
      32:	00 00       	nop
      34:	9b c7       	rjmp	.+3894   	; 0xf6c <__vector_13>
      36:	00 00       	nop
      38:	c2 c7       	rjmp	.+3972   	; 0xfbe <__vector_14>
      3a:	00 00       	nop
      3c:	e9 c7       	rjmp	.+4050   	; 0x1010 <__vector_15>
      3e:	00 00       	nop
      40:	0c 94 31 08 	jmp	0x1062	; 0x1062 <__vector_16>
      44:	0c 94 5a 08 	jmp	0x10b4	; 0x10b4 <__vector_17>
      48:	0c 94 83 08 	jmp	0x1106	; 0x1106 <__vector_18>
      4c:	0c 94 ac 08 	jmp	0x1158	; 0x1158 <__vector_19>
      50:	0c 94 d5 08 	jmp	0x11aa	; 0x11aa <__vector_20>
      54:	0c 94 fe 08 	jmp	0x11fc	; 0x11fc <__vector_21>
      58:	0c 94 27 09 	jmp	0x124e	; 0x124e <__vector_22>
      5c:	0c 94 50 09 	jmp	0x12a0	; 0x12a0 <__vector_23>
      60:	0c 94 7a 09 	jmp	0x12f4	; 0x12f4 <__vector_24>
      64:	0c 94 a3 09 	jmp	0x1346	; 0x1346 <__vector_25>
      68:	0c 94 cd 09 	jmp	0x139a	; 0x139a <__vector_26>
      6c:	0c 94 f7 09 	jmp	0x13ee	; 0x13ee <__vector_27>
      70:	0c 94 21 0a 	jmp	0x1442	; 0x1442 <__vector_28>
      74:	0c 94 4b 0a 	jmp	0x1496	; 0x1496 <__vector_29>
      78:	0c 94 75 0a 	jmp	0x14ea	; 0x14ea <__vector_30>
      7c:	0c 94 9e 0a 	jmp	0x153c	; 0x153c <__vector_31>
      80:	0c 94 c8 0a 	jmp	0x1590	; 0x1590 <__vector_32>
      84:	0c 94 f2 0a 	jmp	0x15e4	; 0x15e4 <__vector_33>
      88:	0c 94 1b 0b 	jmp	0x1636	; 0x1636 <__vector_34>

0000008c <__trampolines_end>:
      8c:	63 64       	ori	r22, 0x43	; 67
      8e:	69 6e       	ori	r22, 0xE9	; 233
      90:	6f 70       	andi	r22, 0x0F	; 15
      92:	73 75       	andi	r23, 0x53	; 83
      94:	78 58       	subi	r23, 0x88	; 136
      96:	5b 00       	.word	0x005b	; ????

00000098 <__ctors_end>:
      98:	11 24       	eor	r1, r1
      9a:	1f be       	out	0x3f, r1	; 63
      9c:	cf ef       	ldi	r28, 0xFF	; 255
      9e:	d0 e1       	ldi	r29, 0x10	; 16
      a0:	de bf       	out	0x3e, r29	; 62
      a2:	cd bf       	out	0x3d, r28	; 61

000000a4 <__do_copy_data>:
      a4:	13 e0       	ldi	r17, 0x03	; 3
      a6:	a0 e0       	ldi	r26, 0x00	; 0
      a8:	b1 e0       	ldi	r27, 0x01	; 1
      aa:	ea e5       	ldi	r30, 0x5A	; 90
      ac:	fc e2       	ldi	r31, 0x2C	; 44
      ae:	00 e0       	ldi	r16, 0x00	; 0
      b0:	0b bf       	out	0x3b, r16	; 59
      b2:	02 c0       	rjmp	.+4      	; 0xb8 <__do_copy_data+0x14>
      b4:	07 90       	elpm	r0, Z+
      b6:	0d 92       	st	X+, r0
      b8:	ae 30       	cpi	r26, 0x0E	; 14
      ba:	b1 07       	cpc	r27, r17
      bc:	d9 f7       	brne	.-10     	; 0xb4 <__do_copy_data+0x10>

000000be <__do_clear_bss>:
      be:	24 e0       	ldi	r18, 0x04	; 4
      c0:	ae e0       	ldi	r26, 0x0E	; 14
      c2:	b3 e0       	ldi	r27, 0x03	; 3
      c4:	01 c0       	rjmp	.+2      	; 0xc8 <.do_clear_bss_start>

000000c6 <.do_clear_bss_loop>:
      c6:	1d 92       	st	X+, r1

000000c8 <.do_clear_bss_start>:
      c8:	ab 3f       	cpi	r26, 0xFB	; 251
      ca:	b2 07       	cpc	r27, r18
      cc:	e1 f7       	brne	.-8      	; 0xc6 <.do_clear_bss_loop>
      ce:	0e 94 fa 0c 	call	0x19f4	; 0x19f4 <main>
      d2:	0c 94 2b 16 	jmp	0x2c56	; 0x2c56 <_exit>

000000d6 <C4M_DEVICE_set>:
      d6:	0e 94 bc 0b 	call	0x1778	; 0x1778 <C4M_STDIO_init>
      da:	0e 94 c5 0c 	call	0x198a	; 0x198a <ASABUS_ID_init>
      de:	42 ec       	ldi	r20, 0xC2	; 194
      e0:	54 e0       	ldi	r21, 0x04	; 4
      e2:	61 e0       	ldi	r22, 0x01	; 1
      e4:	90 e0       	ldi	r25, 0x00	; 0
      e6:	80 e0       	ldi	r24, 0x00	; 0
      e8:	0c 94 4a 0b 	jmp	0x1694	; 0x1694 <EEPROM_get>

000000ec <USE_C4MLIB_STD_ISR>:
      ec:	08 95       	ret

000000ee <TIMER0_OVF_vect_routine1>:
      ee:	80 91 d3 04 	lds	r24, 0x04D3	; 0x8004d3 <PwmIntStrList_p>
      f2:	90 91 d4 04 	lds	r25, 0x04D4	; 0x8004d4 <PwmIntStrList_p+0x1>
      f6:	00 97       	sbiw	r24, 0x00	; 0
      f8:	11 f0       	breq	.+4      	; 0xfe <TIMER0_OVF_vect_routine1+0x10>
      fa:	0c 94 52 0b 	jmp	0x16a4	; 0x16a4 <HWInt_step>
      fe:	08 95       	ret

00000100 <TIMER0_COMP_vect_routine1>:
     100:	80 91 e7 04 	lds	r24, 0x04E7	; 0x8004e7 <TimIntStrList_p>
     104:	90 91 e8 04 	lds	r25, 0x04E8	; 0x8004e8 <TimIntStrList_p+0x1>
     108:	00 97       	sbiw	r24, 0x00	; 0
     10a:	11 f0       	breq	.+4      	; 0x110 <TIMER0_COMP_vect_routine1+0x10>
     10c:	0c 94 52 0b 	jmp	0x16a4	; 0x16a4 <HWInt_step>
     110:	08 95       	ret

00000112 <TIMER1_OVF_vect_routine1>:
     112:	80 91 d5 04 	lds	r24, 0x04D5	; 0x8004d5 <PwmIntStrList_p+0x2>
     116:	90 91 d6 04 	lds	r25, 0x04D6	; 0x8004d6 <PwmIntStrList_p+0x3>
     11a:	00 97       	sbiw	r24, 0x00	; 0
     11c:	11 f0       	breq	.+4      	; 0x122 <TIMER1_OVF_vect_routine1+0x10>
     11e:	0c 94 52 0b 	jmp	0x16a4	; 0x16a4 <HWInt_step>
     122:	08 95       	ret

00000124 <TIMER1_COMPA_vect_routine1>:
     124:	80 91 e9 04 	lds	r24, 0x04E9	; 0x8004e9 <TimIntStrList_p+0x2>
     128:	90 91 ea 04 	lds	r25, 0x04EA	; 0x8004ea <TimIntStrList_p+0x3>
     12c:	00 97       	sbiw	r24, 0x00	; 0
     12e:	11 f0       	breq	.+4      	; 0x134 <TIMER1_COMPA_vect_routine1+0x10>
     130:	0c 94 52 0b 	jmp	0x16a4	; 0x16a4 <HWInt_step>
     134:	08 95       	ret

00000136 <TIMER1_COMPB_vect_routine1>:
     136:	08 95       	ret

00000138 <TIMER1_COMPC_vect_routine1>:
     138:	08 95       	ret

0000013a <TIMER2_OVF_vect_routine1>:
     13a:	80 91 d7 04 	lds	r24, 0x04D7	; 0x8004d7 <PwmIntStrList_p+0x4>
     13e:	90 91 d8 04 	lds	r25, 0x04D8	; 0x8004d8 <PwmIntStrList_p+0x5>
     142:	00 97       	sbiw	r24, 0x00	; 0
     144:	11 f0       	breq	.+4      	; 0x14a <TIMER2_OVF_vect_routine1+0x10>
     146:	0c 94 52 0b 	jmp	0x16a4	; 0x16a4 <HWInt_step>
     14a:	08 95       	ret

0000014c <TIMER2_COMP_vect_routine1>:
     14c:	80 91 eb 04 	lds	r24, 0x04EB	; 0x8004eb <TimIntStrList_p+0x4>
     150:	90 91 ec 04 	lds	r25, 0x04EC	; 0x8004ec <TimIntStrList_p+0x5>
     154:	00 97       	sbiw	r24, 0x00	; 0
     156:	11 f0       	breq	.+4      	; 0x15c <TIMER2_COMP_vect_routine1+0x10>
     158:	0c 94 52 0b 	jmp	0x16a4	; 0x16a4 <HWInt_step>
     15c:	08 95       	ret

0000015e <TIMER3_OVF_vect_routine1>:
     15e:	80 91 d9 04 	lds	r24, 0x04D9	; 0x8004d9 <PwmIntStrList_p+0x6>
     162:	90 91 da 04 	lds	r25, 0x04DA	; 0x8004da <PwmIntStrList_p+0x7>
     166:	00 97       	sbiw	r24, 0x00	; 0
     168:	11 f0       	breq	.+4      	; 0x16e <TIMER3_OVF_vect_routine1+0x10>
     16a:	0c 94 52 0b 	jmp	0x16a4	; 0x16a4 <HWInt_step>
     16e:	08 95       	ret

00000170 <TIMER3_COMPA_vect_routine1>:
     170:	80 91 ed 04 	lds	r24, 0x04ED	; 0x8004ed <TimIntStrList_p+0x6>
     174:	90 91 ee 04 	lds	r25, 0x04EE	; 0x8004ee <TimIntStrList_p+0x7>
     178:	00 97       	sbiw	r24, 0x00	; 0
     17a:	11 f0       	breq	.+4      	; 0x180 <TIMER3_COMPA_vect_routine1+0x10>
     17c:	0c 94 52 0b 	jmp	0x16a4	; 0x16a4 <HWInt_step>
     180:	08 95       	ret

00000182 <TIMER3_COMPB_vect_routine1>:
     182:	08 95       	ret

00000184 <TIMER3_COMPC_vect_routine1>:
     184:	08 95       	ret

00000186 <INT0_vect_routine1>:
     186:	80 91 c3 04 	lds	r24, 0x04C3	; 0x8004c3 <ExtIntStrList_p>
     18a:	90 91 c4 04 	lds	r25, 0x04C4	; 0x8004c4 <ExtIntStrList_p+0x1>
     18e:	00 97       	sbiw	r24, 0x00	; 0
     190:	11 f0       	breq	.+4      	; 0x196 <INT0_vect_routine1+0x10>
     192:	0c 94 52 0b 	jmp	0x16a4	; 0x16a4 <HWInt_step>
     196:	08 95       	ret

00000198 <INT1_vect_routine1>:
     198:	80 91 c5 04 	lds	r24, 0x04C5	; 0x8004c5 <ExtIntStrList_p+0x2>
     19c:	90 91 c6 04 	lds	r25, 0x04C6	; 0x8004c6 <ExtIntStrList_p+0x3>
     1a0:	00 97       	sbiw	r24, 0x00	; 0
     1a2:	11 f0       	breq	.+4      	; 0x1a8 <INT1_vect_routine1+0x10>
     1a4:	0c 94 52 0b 	jmp	0x16a4	; 0x16a4 <HWInt_step>
     1a8:	08 95       	ret

000001aa <INT2_vect_routine1>:
     1aa:	80 91 c7 04 	lds	r24, 0x04C7	; 0x8004c7 <ExtIntStrList_p+0x4>
     1ae:	90 91 c8 04 	lds	r25, 0x04C8	; 0x8004c8 <ExtIntStrList_p+0x5>
     1b2:	00 97       	sbiw	r24, 0x00	; 0
     1b4:	11 f0       	breq	.+4      	; 0x1ba <INT2_vect_routine1+0x10>
     1b6:	0c 94 52 0b 	jmp	0x16a4	; 0x16a4 <HWInt_step>
     1ba:	08 95       	ret

000001bc <INT3_vect_routine1>:
     1bc:	80 91 c9 04 	lds	r24, 0x04C9	; 0x8004c9 <ExtIntStrList_p+0x6>
     1c0:	90 91 ca 04 	lds	r25, 0x04CA	; 0x8004ca <ExtIntStrList_p+0x7>
     1c4:	00 97       	sbiw	r24, 0x00	; 0
     1c6:	11 f0       	breq	.+4      	; 0x1cc <INT3_vect_routine1+0x10>
     1c8:	0c 94 52 0b 	jmp	0x16a4	; 0x16a4 <HWInt_step>
     1cc:	08 95       	ret

000001ce <INT4_vect_routine1>:
     1ce:	80 91 cb 04 	lds	r24, 0x04CB	; 0x8004cb <ExtIntStrList_p+0x8>
     1d2:	90 91 cc 04 	lds	r25, 0x04CC	; 0x8004cc <ExtIntStrList_p+0x9>
     1d6:	00 97       	sbiw	r24, 0x00	; 0
     1d8:	11 f0       	breq	.+4      	; 0x1de <INT4_vect_routine1+0x10>
     1da:	0c 94 52 0b 	jmp	0x16a4	; 0x16a4 <HWInt_step>
     1de:	08 95       	ret

000001e0 <INT5_vect_routine1>:
     1e0:	80 91 cd 04 	lds	r24, 0x04CD	; 0x8004cd <ExtIntStrList_p+0xa>
     1e4:	90 91 ce 04 	lds	r25, 0x04CE	; 0x8004ce <ExtIntStrList_p+0xb>
     1e8:	00 97       	sbiw	r24, 0x00	; 0
     1ea:	11 f0       	breq	.+4      	; 0x1f0 <INT5_vect_routine1+0x10>
     1ec:	0c 94 52 0b 	jmp	0x16a4	; 0x16a4 <HWInt_step>
     1f0:	08 95       	ret

000001f2 <INT6_vect_routine1>:
     1f2:	80 91 cf 04 	lds	r24, 0x04CF	; 0x8004cf <ExtIntStrList_p+0xc>
     1f6:	90 91 d0 04 	lds	r25, 0x04D0	; 0x8004d0 <ExtIntStrList_p+0xd>
     1fa:	00 97       	sbiw	r24, 0x00	; 0
     1fc:	11 f0       	breq	.+4      	; 0x202 <INT6_vect_routine1+0x10>
     1fe:	0c 94 52 0b 	jmp	0x16a4	; 0x16a4 <HWInt_step>
     202:	08 95       	ret

00000204 <INT7_vect_routine1>:
     204:	80 91 d1 04 	lds	r24, 0x04D1	; 0x8004d1 <ExtIntStrList_p+0xe>
     208:	90 91 d2 04 	lds	r25, 0x04D2	; 0x8004d2 <ExtIntStrList_p+0xf>
     20c:	00 97       	sbiw	r24, 0x00	; 0
     20e:	11 f0       	breq	.+4      	; 0x214 <INT7_vect_routine1+0x10>
     210:	0c 94 52 0b 	jmp	0x16a4	; 0x16a4 <HWInt_step>
     214:	08 95       	ret

00000216 <TWI_vect_routine1>:
     216:	80 91 db 04 	lds	r24, 0x04DB	; 0x8004db <TwiIntStrList_p>
     21a:	90 91 dc 04 	lds	r25, 0x04DC	; 0x8004dc <TwiIntStrList_p+0x1>
     21e:	00 97       	sbiw	r24, 0x00	; 0
     220:	11 f0       	breq	.+4      	; 0x226 <TWI_vect_routine1+0x10>
     222:	0c 94 52 0b 	jmp	0x16a4	; 0x16a4 <HWInt_step>
     226:	08 95       	ret

00000228 <SPI_STC_vect_routine1>:
     228:	e0 91 22 01 	lds	r30, 0x0122	; 0x800122 <SPI_SlaveInst+0x2>
     22c:	f0 91 23 01 	lds	r31, 0x0123	; 0x800123 <SPI_SlaveInst+0x3>
     230:	30 97       	sbiw	r30, 0x00	; 0
     232:	09 f0       	breq	.+2      	; 0x236 <SPI_STC_vect_routine1+0xe>
     234:	09 95       	icall
     236:	80 91 e5 04 	lds	r24, 0x04E5	; 0x8004e5 <SpiIntStrList_p>
     23a:	90 91 e6 04 	lds	r25, 0x04E6	; 0x8004e6 <SpiIntStrList_p+0x1>
     23e:	00 97       	sbiw	r24, 0x00	; 0
     240:	11 f0       	breq	.+4      	; 0x246 <SPI_STC_vect_routine1+0x1e>
     242:	0c 94 52 0b 	jmp	0x16a4	; 0x16a4 <HWInt_step>
     246:	08 95       	ret

00000248 <USART0_TX_vect_routine1>:
     248:	e0 91 12 01 	lds	r30, 0x0112	; 0x800112 <UART0_Inst+0x2>
     24c:	f0 91 13 01 	lds	r31, 0x0113	; 0x800113 <UART0_Inst+0x3>
     250:	30 97       	sbiw	r30, 0x00	; 0
     252:	09 f0       	breq	.+2      	; 0x256 <USART0_TX_vect_routine1+0xe>
     254:	09 95       	icall
     256:	80 91 e1 04 	lds	r24, 0x04E1	; 0x8004e1 <UartTxIntStrList_p>
     25a:	90 91 e2 04 	lds	r25, 0x04E2	; 0x8004e2 <UartTxIntStrList_p+0x1>
     25e:	00 97       	sbiw	r24, 0x00	; 0
     260:	11 f0       	breq	.+4      	; 0x266 <USART0_TX_vect_routine1+0x1e>
     262:	0c 94 52 0b 	jmp	0x16a4	; 0x16a4 <HWInt_step>
     266:	08 95       	ret

00000268 <USART0_RX_vect_routine1>:
     268:	e0 91 14 01 	lds	r30, 0x0114	; 0x800114 <UART0_Inst+0x4>
     26c:	f0 91 15 01 	lds	r31, 0x0115	; 0x800115 <UART0_Inst+0x5>
     270:	30 97       	sbiw	r30, 0x00	; 0
     272:	09 f0       	breq	.+2      	; 0x276 <USART0_RX_vect_routine1+0xe>
     274:	09 95       	icall
     276:	80 91 dd 04 	lds	r24, 0x04DD	; 0x8004dd <UartRxIntStrList_p>
     27a:	90 91 de 04 	lds	r25, 0x04DE	; 0x8004de <UartRxIntStrList_p+0x1>
     27e:	00 97       	sbiw	r24, 0x00	; 0
     280:	11 f0       	breq	.+4      	; 0x286 <USART0_RX_vect_routine1+0x1e>
     282:	0c 94 52 0b 	jmp	0x16a4	; 0x16a4 <HWInt_step>
     286:	08 95       	ret

00000288 <USART1_TX_vect_routine1>:
     288:	e0 91 02 01 	lds	r30, 0x0102	; 0x800102 <UART1_Inst+0x2>
     28c:	f0 91 03 01 	lds	r31, 0x0103	; 0x800103 <UART1_Inst+0x3>
     290:	30 97       	sbiw	r30, 0x00	; 0
     292:	09 f0       	breq	.+2      	; 0x296 <USART1_TX_vect_routine1+0xe>
     294:	09 95       	icall
     296:	80 91 e3 04 	lds	r24, 0x04E3	; 0x8004e3 <UartTxIntStrList_p+0x2>
     29a:	90 91 e4 04 	lds	r25, 0x04E4	; 0x8004e4 <UartTxIntStrList_p+0x3>
     29e:	00 97       	sbiw	r24, 0x00	; 0
     2a0:	11 f0       	breq	.+4      	; 0x2a6 <USART1_TX_vect_routine1+0x1e>
     2a2:	0c 94 52 0b 	jmp	0x16a4	; 0x16a4 <HWInt_step>
     2a6:	08 95       	ret

000002a8 <USART1_RX_vect_routine1>:
     2a8:	e0 91 04 01 	lds	r30, 0x0104	; 0x800104 <UART1_Inst+0x4>
     2ac:	f0 91 05 01 	lds	r31, 0x0105	; 0x800105 <UART1_Inst+0x5>
     2b0:	30 97       	sbiw	r30, 0x00	; 0
     2b2:	09 f0       	breq	.+2      	; 0x2b6 <USART1_RX_vect_routine1+0xe>
     2b4:	09 95       	icall
     2b6:	80 91 df 04 	lds	r24, 0x04DF	; 0x8004df <UartRxIntStrList_p+0x2>
     2ba:	90 91 e0 04 	lds	r25, 0x04E0	; 0x8004e0 <UartRxIntStrList_p+0x3>
     2be:	00 97       	sbiw	r24, 0x00	; 0
     2c0:	11 f0       	breq	.+4      	; 0x2c6 <USART1_RX_vect_routine1+0x1e>
     2c2:	0c 94 52 0b 	jmp	0x16a4	; 0x16a4 <HWInt_step>
     2c6:	08 95       	ret

000002c8 <ADC_vect_routine1>:
     2c8:	80 91 ef 04 	lds	r24, 0x04EF	; 0x8004ef <AdcIntStrList_p>
     2cc:	90 91 f0 04 	lds	r25, 0x04F0	; 0x8004f0 <AdcIntStrList_p+0x1>
     2d0:	00 97       	sbiw	r24, 0x00	; 0
     2d2:	11 f0       	breq	.+4      	; 0x2d8 <ADC_vect_routine1+0x10>
     2d4:	0c 94 52 0b 	jmp	0x16a4	; 0x16a4 <HWInt_step>
     2d8:	08 95       	ret

000002da <M128_UART0_init>:
     2da:	10 92 90 00 	sts	0x0090, r1	; 0x800090 <__TEXT_REGION_LENGTH__+0x7e0090>
     2de:	81 e1       	ldi	r24, 0x11	; 17
     2e0:	89 b9       	out	0x09, r24	; 9
     2e2:	8a b1       	in	r24, 0x0a	; 10
     2e4:	88 61       	ori	r24, 0x18	; 24
     2e6:	8a b9       	out	0x0a, r24	; 10
     2e8:	e5 e9       	ldi	r30, 0x95	; 149
     2ea:	f0 e0       	ldi	r31, 0x00	; 0
     2ec:	80 81       	ld	r24, Z
     2ee:	86 60       	ori	r24, 0x06	; 6
     2f0:	80 83       	st	Z, r24
     2f2:	8a b1       	in	r24, 0x0a	; 10
     2f4:	80 6c       	ori	r24, 0xC0	; 192
     2f6:	8a b9       	out	0x0a, r24	; 10
     2f8:	08 95       	ret

000002fa <M128_UART0_write_byte>:
     2fa:	9b 01       	movw	r18, r22
     2fc:	5d 9b       	sbis	0x0b, 5	; 11
     2fe:	fe cf       	rjmp	.-4      	; 0x2fc <M128_UART0_write_byte+0x2>
     300:	8c b9       	out	0x0c, r24	; 12
     302:	10 92 0f 03 	sts	0x030F, r1	; 0x80030f <UART0_error_code>
     306:	90 e0       	ldi	r25, 0x00	; 0
     308:	80 e0       	ldi	r24, 0x00	; 0
     30a:	82 17       	cp	r24, r18
     30c:	93 07       	cpc	r25, r19
     30e:	09 f4       	brne	.+2      	; 0x312 <M128_UART0_write_byte+0x18>
     310:	08 95       	ret
     312:	00 00       	nop
     314:	01 96       	adiw	r24, 0x01	; 1
     316:	f9 cf       	rjmp	.-14     	; 0x30a <M128_UART0_write_byte+0x10>

00000318 <M128_UART0_write_multi_bytes>:
     318:	9a 01       	movw	r18, r20
     31a:	fc 01       	movw	r30, r24
     31c:	68 0f       	add	r22, r24
     31e:	79 2f       	mov	r23, r25
     320:	71 1d       	adc	r23, r1
     322:	e6 17       	cp	r30, r22
     324:	f7 07       	cpc	r31, r23
     326:	19 f4       	brne	.+6      	; 0x32e <M128_UART0_write_multi_bytes+0x16>
     328:	10 92 0f 03 	sts	0x030F, r1	; 0x80030f <UART0_error_code>
     32c:	08 95       	ret
     32e:	5d 9b       	sbis	0x0b, 5	; 11
     330:	fe cf       	rjmp	.-4      	; 0x32e <M128_UART0_write_multi_bytes+0x16>
     332:	81 91       	ld	r24, Z+
     334:	8c b9       	out	0x0c, r24	; 12
     336:	90 e0       	ldi	r25, 0x00	; 0
     338:	80 e0       	ldi	r24, 0x00	; 0
     33a:	82 17       	cp	r24, r18
     33c:	93 07       	cpc	r25, r19
     33e:	89 f3       	breq	.-30     	; 0x322 <M128_UART0_write_multi_bytes+0xa>
     340:	00 00       	nop
     342:	01 96       	adiw	r24, 0x01	; 1
     344:	fa cf       	rjmp	.-12     	; 0x33a <M128_UART0_write_multi_bytes+0x22>

00000346 <M128_UART1_init>:
     346:	10 92 98 00 	sts	0x0098, r1	; 0x800098 <__TEXT_REGION_LENGTH__+0x7e0098>
     34a:	81 e1       	ldi	r24, 0x11	; 17
     34c:	80 93 99 00 	sts	0x0099, r24	; 0x800099 <__TEXT_REGION_LENGTH__+0x7e0099>
     350:	ea e9       	ldi	r30, 0x9A	; 154
     352:	f0 e0       	ldi	r31, 0x00	; 0
     354:	80 81       	ld	r24, Z
     356:	88 61       	ori	r24, 0x18	; 24
     358:	80 83       	st	Z, r24
     35a:	ad e9       	ldi	r26, 0x9D	; 157
     35c:	b0 e0       	ldi	r27, 0x00	; 0
     35e:	8c 91       	ld	r24, X
     360:	86 60       	ori	r24, 0x06	; 6
     362:	8c 93       	st	X, r24
     364:	80 81       	ld	r24, Z
     366:	80 6c       	ori	r24, 0xC0	; 192
     368:	80 83       	st	Z, r24
     36a:	08 95       	ret

0000036c <M128_UART1_write_byte>:
     36c:	9b 01       	movw	r18, r22
     36e:	90 91 9b 00 	lds	r25, 0x009B	; 0x80009b <__TEXT_REGION_LENGTH__+0x7e009b>
     372:	95 ff       	sbrs	r25, 5
     374:	fc cf       	rjmp	.-8      	; 0x36e <M128_UART1_write_byte+0x2>
     376:	80 93 9c 00 	sts	0x009C, r24	; 0x80009c <__TEXT_REGION_LENGTH__+0x7e009c>
     37a:	10 92 0e 03 	sts	0x030E, r1	; 0x80030e <__data_end>
     37e:	90 e0       	ldi	r25, 0x00	; 0
     380:	80 e0       	ldi	r24, 0x00	; 0
     382:	82 17       	cp	r24, r18
     384:	93 07       	cpc	r25, r19
     386:	09 f4       	brne	.+2      	; 0x38a <M128_UART1_write_byte+0x1e>
     388:	08 95       	ret
     38a:	00 00       	nop
     38c:	01 96       	adiw	r24, 0x01	; 1
     38e:	f9 cf       	rjmp	.-14     	; 0x382 <M128_UART1_write_byte+0x16>

00000390 <M128_UART1_write_multi_bytes>:
     390:	9a 01       	movw	r18, r20
     392:	fc 01       	movw	r30, r24
     394:	68 0f       	add	r22, r24
     396:	79 2f       	mov	r23, r25
     398:	71 1d       	adc	r23, r1
     39a:	e6 17       	cp	r30, r22
     39c:	f7 07       	cpc	r31, r23
     39e:	19 f4       	brne	.+6      	; 0x3a6 <M128_UART1_write_multi_bytes+0x16>
     3a0:	10 92 0e 03 	sts	0x030E, r1	; 0x80030e <__data_end>
     3a4:	08 95       	ret
     3a6:	80 91 9b 00 	lds	r24, 0x009B	; 0x80009b <__TEXT_REGION_LENGTH__+0x7e009b>
     3aa:	85 ff       	sbrs	r24, 5
     3ac:	fc cf       	rjmp	.-8      	; 0x3a6 <M128_UART1_write_multi_bytes+0x16>
     3ae:	81 91       	ld	r24, Z+
     3b0:	80 93 9c 00 	sts	0x009C, r24	; 0x80009c <__TEXT_REGION_LENGTH__+0x7e009c>
     3b4:	90 e0       	ldi	r25, 0x00	; 0
     3b6:	80 e0       	ldi	r24, 0x00	; 0
     3b8:	82 17       	cp	r24, r18
     3ba:	93 07       	cpc	r25, r19
     3bc:	71 f3       	breq	.-36     	; 0x39a <M128_UART1_write_multi_bytes+0xa>
     3be:	00 00       	nop
     3c0:	01 96       	adiw	r24, 0x01	; 1
     3c2:	fa cf       	rjmp	.-12     	; 0x3b8 <M128_UART1_write_multi_bytes+0x28>

000003c4 <M128_UART0_read_bytes>:
     3c4:	af 92       	push	r10
     3c6:	bf 92       	push	r11
     3c8:	cf 92       	push	r12
     3ca:	df 92       	push	r13
     3cc:	ef 92       	push	r14
     3ce:	ff 92       	push	r15
     3d0:	0f 93       	push	r16
     3d2:	1f 93       	push	r17
     3d4:	cf 93       	push	r28
     3d6:	df 93       	push	r29
     3d8:	cd b7       	in	r28, 0x3d	; 61
     3da:	de b7       	in	r29, 0x3e	; 62
     3dc:	28 97       	sbiw	r28, 0x08	; 8
     3de:	0f b6       	in	r0, 0x3f	; 63
     3e0:	f8 94       	cli
     3e2:	de bf       	out	0x3e, r29	; 62
     3e4:	0f be       	out	0x3f, r0	; 63
     3e6:	cd bf       	out	0x3d, r28	; 61
     3e8:	7c 01       	movw	r14, r24
     3ea:	5a 01       	movw	r10, r20
     3ec:	10 e0       	ldi	r17, 0x00	; 0
     3ee:	00 e0       	ldi	r16, 0x00	; 0
     3f0:	c6 2e       	mov	r12, r22
     3f2:	d1 2c       	mov	r13, r1
     3f4:	0c 15       	cp	r16, r12
     3f6:	1d 05       	cpc	r17, r13
     3f8:	1c f0       	brlt	.+6      	; 0x400 <__LOCK_REGION_LENGTH__>
     3fa:	10 92 0f 03 	sts	0x030F, r1	; 0x80030f <UART0_error_code>
     3fe:	2d c0       	rjmp	.+90     	; 0x45a <__LOCK_REGION_LENGTH__+0x5a>
     400:	ae 01       	movw	r20, r28
     402:	4f 5f       	subi	r20, 0xFF	; 255
     404:	5f 4f       	sbci	r21, 0xFF	; 255
     406:	62 e3       	ldi	r22, 0x32	; 50
     408:	70 e0       	ldi	r23, 0x00	; 0
     40a:	80 e0       	ldi	r24, 0x00	; 0
     40c:	90 e0       	ldi	r25, 0x00	; 0
     40e:	0e 94 26 0c 	call	0x184c	; 0x184c <HAL_get_expired_time_ms>
     412:	5f 9b       	sbis	0x0b, 7	; 11
     414:	0d c0       	rjmp	.+26     	; 0x430 <__LOCK_REGION_LENGTH__+0x30>
     416:	8c b1       	in	r24, 0x0c	; 12
     418:	f7 01       	movw	r30, r14
     41a:	e0 0f       	add	r30, r16
     41c:	f1 1f       	adc	r31, r17
     41e:	80 83       	st	Z, r24
     420:	90 e0       	ldi	r25, 0x00	; 0
     422:	80 e0       	ldi	r24, 0x00	; 0
     424:	8a 15       	cp	r24, r10
     426:	9b 05       	cpc	r25, r11
     428:	49 f5       	brne	.+82     	; 0x47c <__LOCK_REGION_LENGTH__+0x7c>
     42a:	0f 5f       	subi	r16, 0xFF	; 255
     42c:	1f 4f       	sbci	r17, 0xFF	; 255
     42e:	e2 cf       	rjmp	.-60     	; 0x3f4 <M128_UART0_read_bytes+0x30>
     430:	89 81       	ldd	r24, Y+1	; 0x01
     432:	9a 81       	ldd	r25, Y+2	; 0x02
     434:	ab 81       	ldd	r26, Y+3	; 0x03
     436:	bc 81       	ldd	r27, Y+4	; 0x04
     438:	8d 83       	std	Y+5, r24	; 0x05
     43a:	9e 83       	std	Y+6, r25	; 0x06
     43c:	af 83       	std	Y+7, r26	; 0x07
     43e:	b8 87       	std	Y+8, r27	; 0x08
     440:	bc 01       	movw	r22, r24
     442:	cd 01       	movw	r24, r26
     444:	0e 94 50 0c 	call	0x18a0	; 0x18a0 <HAL_timeout_test>
     448:	88 23       	and	r24, r24
     44a:	19 f3       	breq	.-58     	; 0x412 <__LOCK_REGION_LENGTH__+0x12>
     44c:	81 e0       	ldi	r24, 0x01	; 1
     44e:	80 93 0f 03 	sts	0x030F, r24	; 0x80030f <UART0_error_code>
     452:	0e 0d       	add	r16, r14
     454:	1f 1d       	adc	r17, r15
     456:	d8 01       	movw	r26, r16
     458:	1c 92       	st	X, r1
     45a:	28 96       	adiw	r28, 0x08	; 8
     45c:	0f b6       	in	r0, 0x3f	; 63
     45e:	f8 94       	cli
     460:	de bf       	out	0x3e, r29	; 62
     462:	0f be       	out	0x3f, r0	; 63
     464:	cd bf       	out	0x3d, r28	; 61
     466:	df 91       	pop	r29
     468:	cf 91       	pop	r28
     46a:	1f 91       	pop	r17
     46c:	0f 91       	pop	r16
     46e:	ff 90       	pop	r15
     470:	ef 90       	pop	r14
     472:	df 90       	pop	r13
     474:	cf 90       	pop	r12
     476:	bf 90       	pop	r11
     478:	af 90       	pop	r10
     47a:	08 95       	ret
     47c:	00 00       	nop
     47e:	01 96       	adiw	r24, 0x01	; 1
     480:	d1 cf       	rjmp	.-94     	; 0x424 <__LOCK_REGION_LENGTH__+0x24>

00000482 <M128_UART1_read_bytes>:
     482:	af 92       	push	r10
     484:	bf 92       	push	r11
     486:	cf 92       	push	r12
     488:	df 92       	push	r13
     48a:	ef 92       	push	r14
     48c:	ff 92       	push	r15
     48e:	0f 93       	push	r16
     490:	1f 93       	push	r17
     492:	cf 93       	push	r28
     494:	df 93       	push	r29
     496:	cd b7       	in	r28, 0x3d	; 61
     498:	de b7       	in	r29, 0x3e	; 62
     49a:	28 97       	sbiw	r28, 0x08	; 8
     49c:	0f b6       	in	r0, 0x3f	; 63
     49e:	f8 94       	cli
     4a0:	de bf       	out	0x3e, r29	; 62
     4a2:	0f be       	out	0x3f, r0	; 63
     4a4:	cd bf       	out	0x3d, r28	; 61
     4a6:	7c 01       	movw	r14, r24
     4a8:	5a 01       	movw	r10, r20
     4aa:	10 e0       	ldi	r17, 0x00	; 0
     4ac:	00 e0       	ldi	r16, 0x00	; 0
     4ae:	c6 2e       	mov	r12, r22
     4b0:	d1 2c       	mov	r13, r1
     4b2:	0c 15       	cp	r16, r12
     4b4:	1d 05       	cpc	r17, r13
     4b6:	1c f0       	brlt	.+6      	; 0x4be <M128_UART1_read_bytes+0x3c>
     4b8:	10 92 0e 03 	sts	0x030E, r1	; 0x80030e <__data_end>
     4bc:	30 c0       	rjmp	.+96     	; 0x51e <M128_UART1_read_bytes+0x9c>
     4be:	ae 01       	movw	r20, r28
     4c0:	4f 5f       	subi	r20, 0xFF	; 255
     4c2:	5f 4f       	sbci	r21, 0xFF	; 255
     4c4:	62 e3       	ldi	r22, 0x32	; 50
     4c6:	70 e0       	ldi	r23, 0x00	; 0
     4c8:	80 e0       	ldi	r24, 0x00	; 0
     4ca:	90 e0       	ldi	r25, 0x00	; 0
     4cc:	0e 94 26 0c 	call	0x184c	; 0x184c <HAL_get_expired_time_ms>
     4d0:	80 91 9b 00 	lds	r24, 0x009B	; 0x80009b <__TEXT_REGION_LENGTH__+0x7e009b>
     4d4:	87 ff       	sbrs	r24, 7
     4d6:	0e c0       	rjmp	.+28     	; 0x4f4 <M128_UART1_read_bytes+0x72>
     4d8:	80 91 9c 00 	lds	r24, 0x009C	; 0x80009c <__TEXT_REGION_LENGTH__+0x7e009c>
     4dc:	f7 01       	movw	r30, r14
     4de:	e0 0f       	add	r30, r16
     4e0:	f1 1f       	adc	r31, r17
     4e2:	80 83       	st	Z, r24
     4e4:	90 e0       	ldi	r25, 0x00	; 0
     4e6:	80 e0       	ldi	r24, 0x00	; 0
     4e8:	8a 15       	cp	r24, r10
     4ea:	9b 05       	cpc	r25, r11
     4ec:	49 f5       	brne	.+82     	; 0x540 <M128_UART1_read_bytes+0xbe>
     4ee:	0f 5f       	subi	r16, 0xFF	; 255
     4f0:	1f 4f       	sbci	r17, 0xFF	; 255
     4f2:	df cf       	rjmp	.-66     	; 0x4b2 <M128_UART1_read_bytes+0x30>
     4f4:	89 81       	ldd	r24, Y+1	; 0x01
     4f6:	9a 81       	ldd	r25, Y+2	; 0x02
     4f8:	ab 81       	ldd	r26, Y+3	; 0x03
     4fa:	bc 81       	ldd	r27, Y+4	; 0x04
     4fc:	8d 83       	std	Y+5, r24	; 0x05
     4fe:	9e 83       	std	Y+6, r25	; 0x06
     500:	af 83       	std	Y+7, r26	; 0x07
     502:	b8 87       	std	Y+8, r27	; 0x08
     504:	bc 01       	movw	r22, r24
     506:	cd 01       	movw	r24, r26
     508:	0e 94 50 0c 	call	0x18a0	; 0x18a0 <HAL_timeout_test>
     50c:	88 23       	and	r24, r24
     50e:	01 f3       	breq	.-64     	; 0x4d0 <M128_UART1_read_bytes+0x4e>
     510:	81 e0       	ldi	r24, 0x01	; 1
     512:	80 93 0e 03 	sts	0x030E, r24	; 0x80030e <__data_end>
     516:	0e 0d       	add	r16, r14
     518:	1f 1d       	adc	r17, r15
     51a:	d8 01       	movw	r26, r16
     51c:	1c 92       	st	X, r1
     51e:	28 96       	adiw	r28, 0x08	; 8
     520:	0f b6       	in	r0, 0x3f	; 63
     522:	f8 94       	cli
     524:	de bf       	out	0x3e, r29	; 62
     526:	0f be       	out	0x3f, r0	; 63
     528:	cd bf       	out	0x3d, r28	; 61
     52a:	df 91       	pop	r29
     52c:	cf 91       	pop	r28
     52e:	1f 91       	pop	r17
     530:	0f 91       	pop	r16
     532:	ff 90       	pop	r15
     534:	ef 90       	pop	r14
     536:	df 90       	pop	r13
     538:	cf 90       	pop	r12
     53a:	bf 90       	pop	r11
     53c:	af 90       	pop	r10
     53e:	08 95       	ret
     540:	00 00       	nop
     542:	01 96       	adiw	r24, 0x01	; 1
     544:	d1 cf       	rjmp	.-94     	; 0x4e8 <M128_UART1_read_bytes+0x66>

00000546 <M128_UART0_read_byte>:
     546:	ef 92       	push	r14
     548:	ff 92       	push	r15
     54a:	0f 93       	push	r16
     54c:	1f 93       	push	r17
     54e:	cf 93       	push	r28
     550:	df 93       	push	r29
     552:	cd b7       	in	r28, 0x3d	; 61
     554:	de b7       	in	r29, 0x3e	; 62
     556:	28 97       	sbiw	r28, 0x08	; 8
     558:	0f b6       	in	r0, 0x3f	; 63
     55a:	f8 94       	cli
     55c:	de bf       	out	0x3e, r29	; 62
     55e:	0f be       	out	0x3f, r0	; 63
     560:	cd bf       	out	0x3d, r28	; 61
     562:	8c 01       	movw	r16, r24
     564:	7b 01       	movw	r14, r22
     566:	ae 01       	movw	r20, r28
     568:	4f 5f       	subi	r20, 0xFF	; 255
     56a:	5f 4f       	sbci	r21, 0xFF	; 255
     56c:	62 e3       	ldi	r22, 0x32	; 50
     56e:	70 e0       	ldi	r23, 0x00	; 0
     570:	80 e0       	ldi	r24, 0x00	; 0
     572:	90 e0       	ldi	r25, 0x00	; 0
     574:	0e 94 26 0c 	call	0x184c	; 0x184c <HAL_get_expired_time_ms>
     578:	5f 9b       	sbis	0x0b, 7	; 11
     57a:	0d c0       	rjmp	.+26     	; 0x596 <M128_UART0_read_byte+0x50>
     57c:	8c b1       	in	r24, 0x0c	; 12
     57e:	f8 01       	movw	r30, r16
     580:	80 83       	st	Z, r24
     582:	10 92 0f 03 	sts	0x030F, r1	; 0x80030f <UART0_error_code>
     586:	90 e0       	ldi	r25, 0x00	; 0
     588:	80 e0       	ldi	r24, 0x00	; 0
     58a:	8e 15       	cp	r24, r14
     58c:	9f 05       	cpc	r25, r15
     58e:	b1 f0       	breq	.+44     	; 0x5bc <M128_UART0_read_byte+0x76>
     590:	00 00       	nop
     592:	01 96       	adiw	r24, 0x01	; 1
     594:	fa cf       	rjmp	.-12     	; 0x58a <M128_UART0_read_byte+0x44>
     596:	89 81       	ldd	r24, Y+1	; 0x01
     598:	9a 81       	ldd	r25, Y+2	; 0x02
     59a:	ab 81       	ldd	r26, Y+3	; 0x03
     59c:	bc 81       	ldd	r27, Y+4	; 0x04
     59e:	8d 83       	std	Y+5, r24	; 0x05
     5a0:	9e 83       	std	Y+6, r25	; 0x06
     5a2:	af 83       	std	Y+7, r26	; 0x07
     5a4:	b8 87       	std	Y+8, r27	; 0x08
     5a6:	bc 01       	movw	r22, r24
     5a8:	cd 01       	movw	r24, r26
     5aa:	0e 94 50 0c 	call	0x18a0	; 0x18a0 <HAL_timeout_test>
     5ae:	88 23       	and	r24, r24
     5b0:	19 f3       	breq	.-58     	; 0x578 <M128_UART0_read_byte+0x32>
     5b2:	81 e0       	ldi	r24, 0x01	; 1
     5b4:	80 93 0f 03 	sts	0x030F, r24	; 0x80030f <UART0_error_code>
     5b8:	d8 01       	movw	r26, r16
     5ba:	1c 92       	st	X, r1
     5bc:	28 96       	adiw	r28, 0x08	; 8
     5be:	0f b6       	in	r0, 0x3f	; 63
     5c0:	f8 94       	cli
     5c2:	de bf       	out	0x3e, r29	; 62
     5c4:	0f be       	out	0x3f, r0	; 63
     5c6:	cd bf       	out	0x3d, r28	; 61
     5c8:	df 91       	pop	r29
     5ca:	cf 91       	pop	r28
     5cc:	1f 91       	pop	r17
     5ce:	0f 91       	pop	r16
     5d0:	ff 90       	pop	r15
     5d2:	ef 90       	pop	r14
     5d4:	08 95       	ret

000005d6 <M128_UART1_read_byte>:
     5d6:	ef 92       	push	r14
     5d8:	ff 92       	push	r15
     5da:	0f 93       	push	r16
     5dc:	1f 93       	push	r17
     5de:	cf 93       	push	r28
     5e0:	df 93       	push	r29
     5e2:	cd b7       	in	r28, 0x3d	; 61
     5e4:	de b7       	in	r29, 0x3e	; 62
     5e6:	28 97       	sbiw	r28, 0x08	; 8
     5e8:	0f b6       	in	r0, 0x3f	; 63
     5ea:	f8 94       	cli
     5ec:	de bf       	out	0x3e, r29	; 62
     5ee:	0f be       	out	0x3f, r0	; 63
     5f0:	cd bf       	out	0x3d, r28	; 61
     5f2:	8c 01       	movw	r16, r24
     5f4:	7b 01       	movw	r14, r22
     5f6:	ae 01       	movw	r20, r28
     5f8:	4f 5f       	subi	r20, 0xFF	; 255
     5fa:	5f 4f       	sbci	r21, 0xFF	; 255
     5fc:	62 e3       	ldi	r22, 0x32	; 50
     5fe:	70 e0       	ldi	r23, 0x00	; 0
     600:	80 e0       	ldi	r24, 0x00	; 0
     602:	90 e0       	ldi	r25, 0x00	; 0
     604:	0e 94 26 0c 	call	0x184c	; 0x184c <HAL_get_expired_time_ms>
     608:	80 91 9b 00 	lds	r24, 0x009B	; 0x80009b <__TEXT_REGION_LENGTH__+0x7e009b>
     60c:	87 ff       	sbrs	r24, 7
     60e:	0e c0       	rjmp	.+28     	; 0x62c <M128_UART1_read_byte+0x56>
     610:	80 91 9c 00 	lds	r24, 0x009C	; 0x80009c <__TEXT_REGION_LENGTH__+0x7e009c>
     614:	f8 01       	movw	r30, r16
     616:	80 83       	st	Z, r24
     618:	10 92 0e 03 	sts	0x030E, r1	; 0x80030e <__data_end>
     61c:	90 e0       	ldi	r25, 0x00	; 0
     61e:	80 e0       	ldi	r24, 0x00	; 0
     620:	8e 15       	cp	r24, r14
     622:	9f 05       	cpc	r25, r15
     624:	b1 f0       	breq	.+44     	; 0x652 <M128_UART1_read_byte+0x7c>
     626:	00 00       	nop
     628:	01 96       	adiw	r24, 0x01	; 1
     62a:	fa cf       	rjmp	.-12     	; 0x620 <M128_UART1_read_byte+0x4a>
     62c:	89 81       	ldd	r24, Y+1	; 0x01
     62e:	9a 81       	ldd	r25, Y+2	; 0x02
     630:	ab 81       	ldd	r26, Y+3	; 0x03
     632:	bc 81       	ldd	r27, Y+4	; 0x04
     634:	8d 83       	std	Y+5, r24	; 0x05
     636:	9e 83       	std	Y+6, r25	; 0x06
     638:	af 83       	std	Y+7, r26	; 0x07
     63a:	b8 87       	std	Y+8, r27	; 0x08
     63c:	bc 01       	movw	r22, r24
     63e:	cd 01       	movw	r24, r26
     640:	0e 94 50 0c 	call	0x18a0	; 0x18a0 <HAL_timeout_test>
     644:	88 23       	and	r24, r24
     646:	01 f3       	breq	.-64     	; 0x608 <M128_UART1_read_byte+0x32>
     648:	81 e0       	ldi	r24, 0x01	; 1
     64a:	80 93 0e 03 	sts	0x030E, r24	; 0x80030e <__data_end>
     64e:	d8 01       	movw	r26, r16
     650:	1c 92       	st	X, r1
     652:	28 96       	adiw	r28, 0x08	; 8
     654:	0f b6       	in	r0, 0x3f	; 63
     656:	f8 94       	cli
     658:	de bf       	out	0x3e, r29	; 62
     65a:	0f be       	out	0x3f, r0	; 63
     65c:	cd bf       	out	0x3d, r28	; 61
     65e:	df 91       	pop	r29
     660:	cf 91       	pop	r28
     662:	1f 91       	pop	r17
     664:	0f 91       	pop	r16
     666:	ff 90       	pop	r15
     668:	ef 90       	pop	r14
     66a:	08 95       	ret

0000066c <M128_SPI_Slave_init>:
     66c:	87 b3       	in	r24, 0x17	; 23
     66e:	88 7f       	andi	r24, 0xF8	; 248
     670:	87 bb       	out	0x17, r24	; 23
     672:	bb 9a       	sbi	0x17, 3	; 23
     674:	80 e4       	ldi	r24, 0x40	; 64
     676:	8d b9       	out	0x0d, r24	; 13
     678:	6f 9a       	sbi	0x0d, 7	; 13
     67a:	78 94       	sei
     67c:	08 95       	ret

0000067e <M128_SPIS_write_byte>:
     67e:	8f b9       	out	0x0f, r24	; 15
     680:	08 95       	ret

00000682 <M128_SPIS_read_byte>:
     682:	8f b1       	in	r24, 0x0f	; 15
     684:	08 95       	ret

00000686 <M128_SPI_read_multi_bytes>:
     686:	ff 92       	push	r15
     688:	0f 93       	push	r16
     68a:	1f 93       	push	r17
     68c:	cf 93       	push	r28
     68e:	df 93       	push	r29
     690:	cd b7       	in	r28, 0x3d	; 61
     692:	de b7       	in	r29, 0x3e	; 62
     694:	28 97       	sbiw	r28, 0x08	; 8
     696:	0f b6       	in	r0, 0x3f	; 63
     698:	f8 94       	cli
     69a:	de bf       	out	0x3e, r29	; 62
     69c:	0f be       	out	0x3f, r0	; 63
     69e:	cd bf       	out	0x3d, r28	; 61
     6a0:	18 2f       	mov	r17, r24
     6a2:	f9 2e       	mov	r15, r25
     6a4:	06 2f       	mov	r16, r22
     6a6:	08 0f       	add	r16, r24
     6a8:	ae 01       	movw	r20, r28
     6aa:	4f 5f       	subi	r20, 0xFF	; 255
     6ac:	5f 4f       	sbci	r21, 0xFF	; 255
     6ae:	62 e3       	ldi	r22, 0x32	; 50
     6b0:	70 e0       	ldi	r23, 0x00	; 0
     6b2:	80 e0       	ldi	r24, 0x00	; 0
     6b4:	90 e0       	ldi	r25, 0x00	; 0
     6b6:	0e 94 26 0c 	call	0x184c	; 0x184c <HAL_get_expired_time_ms>
     6ba:	77 9b       	sbis	0x0e, 7	; 14
     6bc:	09 c0       	rjmp	.+18     	; 0x6d0 <M128_SPI_read_multi_bytes+0x4a>
     6be:	e1 2f       	mov	r30, r17
     6c0:	ff 2d       	mov	r31, r15
     6c2:	8f b1       	in	r24, 0x0f	; 15
     6c4:	81 93       	st	Z+, r24
     6c6:	0e 17       	cp	r16, r30
     6c8:	a1 f0       	breq	.+40     	; 0x6f2 <M128_SPI_read_multi_bytes+0x6c>
     6ca:	1e 2f       	mov	r17, r30
     6cc:	ff 2e       	mov	r15, r31
     6ce:	ec cf       	rjmp	.-40     	; 0x6a8 <M128_SPI_read_multi_bytes+0x22>
     6d0:	89 81       	ldd	r24, Y+1	; 0x01
     6d2:	9a 81       	ldd	r25, Y+2	; 0x02
     6d4:	ab 81       	ldd	r26, Y+3	; 0x03
     6d6:	bc 81       	ldd	r27, Y+4	; 0x04
     6d8:	8d 83       	std	Y+5, r24	; 0x05
     6da:	9e 83       	std	Y+6, r25	; 0x06
     6dc:	af 83       	std	Y+7, r26	; 0x07
     6de:	b8 87       	std	Y+8, r27	; 0x08
     6e0:	bc 01       	movw	r22, r24
     6e2:	cd 01       	movw	r24, r26
     6e4:	0e 94 50 0c 	call	0x18a0	; 0x18a0 <HAL_timeout_test>
     6e8:	88 23       	and	r24, r24
     6ea:	39 f3       	breq	.-50     	; 0x6ba <M128_SPI_read_multi_bytes+0x34>
     6ec:	81 e0       	ldi	r24, 0x01	; 1
     6ee:	80 93 3f 01 	sts	0x013F, r24	; 0x80013f <SPI_MasterInst+0x14>
     6f2:	28 96       	adiw	r28, 0x08	; 8
     6f4:	0f b6       	in	r0, 0x3f	; 63
     6f6:	f8 94       	cli
     6f8:	de bf       	out	0x3e, r29	; 62
     6fa:	0f be       	out	0x3f, r0	; 63
     6fc:	cd bf       	out	0x3d, r28	; 61
     6fe:	df 91       	pop	r29
     700:	cf 91       	pop	r28
     702:	1f 91       	pop	r17
     704:	0f 91       	pop	r16
     706:	ff 90       	pop	r15
     708:	08 95       	ret

0000070a <M128_SPI_read_byte>:
     70a:	cf 93       	push	r28
     70c:	df 93       	push	r29
     70e:	cd b7       	in	r28, 0x3d	; 61
     710:	de b7       	in	r29, 0x3e	; 62
     712:	28 97       	sbiw	r28, 0x08	; 8
     714:	0f b6       	in	r0, 0x3f	; 63
     716:	f8 94       	cli
     718:	de bf       	out	0x3e, r29	; 62
     71a:	0f be       	out	0x3f, r0	; 63
     71c:	cd bf       	out	0x3d, r28	; 61
     71e:	ae 01       	movw	r20, r28
     720:	4f 5f       	subi	r20, 0xFF	; 255
     722:	5f 4f       	sbci	r21, 0xFF	; 255
     724:	62 e3       	ldi	r22, 0x32	; 50
     726:	70 e0       	ldi	r23, 0x00	; 0
     728:	80 e0       	ldi	r24, 0x00	; 0
     72a:	90 e0       	ldi	r25, 0x00	; 0
     72c:	0e 94 26 0c 	call	0x184c	; 0x184c <HAL_get_expired_time_ms>
     730:	77 9b       	sbis	0x0e, 7	; 14
     732:	02 c0       	rjmp	.+4      	; 0x738 <M128_SPI_read_byte+0x2e>
     734:	8f b1       	in	r24, 0x0f	; 15
     736:	12 c0       	rjmp	.+36     	; 0x75c <M128_SPI_read_byte+0x52>
     738:	89 81       	ldd	r24, Y+1	; 0x01
     73a:	9a 81       	ldd	r25, Y+2	; 0x02
     73c:	ab 81       	ldd	r26, Y+3	; 0x03
     73e:	bc 81       	ldd	r27, Y+4	; 0x04
     740:	8d 83       	std	Y+5, r24	; 0x05
     742:	9e 83       	std	Y+6, r25	; 0x06
     744:	af 83       	std	Y+7, r26	; 0x07
     746:	b8 87       	std	Y+8, r27	; 0x08
     748:	bc 01       	movw	r22, r24
     74a:	cd 01       	movw	r24, r26
     74c:	0e 94 50 0c 	call	0x18a0	; 0x18a0 <HAL_timeout_test>
     750:	88 23       	and	r24, r24
     752:	71 f3       	breq	.-36     	; 0x730 <M128_SPI_read_byte+0x26>
     754:	81 e0       	ldi	r24, 0x01	; 1
     756:	80 93 3f 01 	sts	0x013F, r24	; 0x80013f <SPI_MasterInst+0x14>
     75a:	80 e0       	ldi	r24, 0x00	; 0
     75c:	28 96       	adiw	r28, 0x08	; 8
     75e:	0f b6       	in	r0, 0x3f	; 63
     760:	f8 94       	cli
     762:	de bf       	out	0x3e, r29	; 62
     764:	0f be       	out	0x3f, r0	; 63
     766:	cd bf       	out	0x3d, r28	; 61
     768:	df 91       	pop	r29
     76a:	cf 91       	pop	r28
     76c:	08 95       	ret

0000076e <M128_SPI_write_multi_bytes>:
     76e:	ff 92       	push	r15
     770:	0f 93       	push	r16
     772:	1f 93       	push	r17
     774:	cf 93       	push	r28
     776:	df 93       	push	r29
     778:	cd b7       	in	r28, 0x3d	; 61
     77a:	de b7       	in	r29, 0x3e	; 62
     77c:	28 97       	sbiw	r28, 0x08	; 8
     77e:	0f b6       	in	r0, 0x3f	; 63
     780:	f8 94       	cli
     782:	de bf       	out	0x3e, r29	; 62
     784:	0f be       	out	0x3f, r0	; 63
     786:	cd bf       	out	0x3d, r28	; 61
     788:	8c 01       	movw	r16, r24
     78a:	f6 2e       	mov	r15, r22
     78c:	f8 0e       	add	r15, r24
     78e:	f8 01       	movw	r30, r16
     790:	80 81       	ld	r24, Z
     792:	0f 5f       	subi	r16, 0xFF	; 255
     794:	1f 4f       	sbci	r17, 0xFF	; 255
     796:	8f b9       	out	0x0f, r24	; 15
     798:	ae 01       	movw	r20, r28
     79a:	4f 5f       	subi	r20, 0xFF	; 255
     79c:	5f 4f       	sbci	r21, 0xFF	; 255
     79e:	62 e3       	ldi	r22, 0x32	; 50
     7a0:	70 e0       	ldi	r23, 0x00	; 0
     7a2:	80 e0       	ldi	r24, 0x00	; 0
     7a4:	90 e0       	ldi	r25, 0x00	; 0
     7a6:	0e 94 26 0c 	call	0x184c	; 0x184c <HAL_get_expired_time_ms>
     7aa:	77 9b       	sbis	0x0e, 7	; 14
     7ac:	03 c0       	rjmp	.+6      	; 0x7b4 <M128_SPI_write_multi_bytes+0x46>
     7ae:	f0 12       	cpse	r15, r16
     7b0:	ee cf       	rjmp	.-36     	; 0x78e <M128_SPI_write_multi_bytes+0x20>
     7b2:	11 c0       	rjmp	.+34     	; 0x7d6 <M128_SPI_write_multi_bytes+0x68>
     7b4:	89 81       	ldd	r24, Y+1	; 0x01
     7b6:	9a 81       	ldd	r25, Y+2	; 0x02
     7b8:	ab 81       	ldd	r26, Y+3	; 0x03
     7ba:	bc 81       	ldd	r27, Y+4	; 0x04
     7bc:	8d 83       	std	Y+5, r24	; 0x05
     7be:	9e 83       	std	Y+6, r25	; 0x06
     7c0:	af 83       	std	Y+7, r26	; 0x07
     7c2:	b8 87       	std	Y+8, r27	; 0x08
     7c4:	bc 01       	movw	r22, r24
     7c6:	cd 01       	movw	r24, r26
     7c8:	0e 94 50 0c 	call	0x18a0	; 0x18a0 <HAL_timeout_test>
     7cc:	88 23       	and	r24, r24
     7ce:	69 f3       	breq	.-38     	; 0x7aa <M128_SPI_write_multi_bytes+0x3c>
     7d0:	81 e0       	ldi	r24, 0x01	; 1
     7d2:	80 93 3f 01 	sts	0x013F, r24	; 0x80013f <SPI_MasterInst+0x14>
     7d6:	28 96       	adiw	r28, 0x08	; 8
     7d8:	0f b6       	in	r0, 0x3f	; 63
     7da:	f8 94       	cli
     7dc:	de bf       	out	0x3e, r29	; 62
     7de:	0f be       	out	0x3f, r0	; 63
     7e0:	cd bf       	out	0x3d, r28	; 61
     7e2:	df 91       	pop	r29
     7e4:	cf 91       	pop	r28
     7e6:	1f 91       	pop	r17
     7e8:	0f 91       	pop	r16
     7ea:	ff 90       	pop	r15
     7ec:	08 95       	ret

000007ee <M128_SPI_write_byte>:
     7ee:	cf 93       	push	r28
     7f0:	df 93       	push	r29
     7f2:	cd b7       	in	r28, 0x3d	; 61
     7f4:	de b7       	in	r29, 0x3e	; 62
     7f6:	28 97       	sbiw	r28, 0x08	; 8
     7f8:	0f b6       	in	r0, 0x3f	; 63
     7fa:	f8 94       	cli
     7fc:	de bf       	out	0x3e, r29	; 62
     7fe:	0f be       	out	0x3f, r0	; 63
     800:	cd bf       	out	0x3d, r28	; 61
     802:	8f b9       	out	0x0f, r24	; 15
     804:	ae 01       	movw	r20, r28
     806:	4f 5f       	subi	r20, 0xFF	; 255
     808:	5f 4f       	sbci	r21, 0xFF	; 255
     80a:	62 e3       	ldi	r22, 0x32	; 50
     80c:	70 e0       	ldi	r23, 0x00	; 0
     80e:	80 e0       	ldi	r24, 0x00	; 0
     810:	90 e0       	ldi	r25, 0x00	; 0
     812:	0e 94 26 0c 	call	0x184c	; 0x184c <HAL_get_expired_time_ms>
     816:	77 99       	sbic	0x0e, 7	; 14
     818:	11 c0       	rjmp	.+34     	; 0x83c <M128_SPI_write_byte+0x4e>
     81a:	89 81       	ldd	r24, Y+1	; 0x01
     81c:	9a 81       	ldd	r25, Y+2	; 0x02
     81e:	ab 81       	ldd	r26, Y+3	; 0x03
     820:	bc 81       	ldd	r27, Y+4	; 0x04
     822:	8d 83       	std	Y+5, r24	; 0x05
     824:	9e 83       	std	Y+6, r25	; 0x06
     826:	af 83       	std	Y+7, r26	; 0x07
     828:	b8 87       	std	Y+8, r27	; 0x08
     82a:	bc 01       	movw	r22, r24
     82c:	cd 01       	movw	r24, r26
     82e:	0e 94 50 0c 	call	0x18a0	; 0x18a0 <HAL_timeout_test>
     832:	88 23       	and	r24, r24
     834:	81 f3       	breq	.-32     	; 0x816 <M128_SPI_write_byte+0x28>
     836:	81 e0       	ldi	r24, 0x01	; 1
     838:	80 93 3f 01 	sts	0x013F, r24	; 0x80013f <SPI_MasterInst+0x14>
     83c:	28 96       	adiw	r28, 0x08	; 8
     83e:	0f b6       	in	r0, 0x3f	; 63
     840:	f8 94       	cli
     842:	de bf       	out	0x3e, r29	; 62
     844:	0f be       	out	0x3f, r0	; 63
     846:	cd bf       	out	0x3d, r28	; 61
     848:	df 91       	pop	r29
     84a:	cf 91       	pop	r28
     84c:	08 95       	ret

0000084e <M128_SPI_multi_swap>:
     84e:	df 92       	push	r13
     850:	ef 92       	push	r14
     852:	ff 92       	push	r15
     854:	0f 93       	push	r16
     856:	1f 93       	push	r17
     858:	cf 93       	push	r28
     85a:	df 93       	push	r29
     85c:	cd b7       	in	r28, 0x3d	; 61
     85e:	de b7       	in	r29, 0x3e	; 62
     860:	28 97       	sbiw	r28, 0x08	; 8
     862:	0f b6       	in	r0, 0x3f	; 63
     864:	f8 94       	cli
     866:	de bf       	out	0x3e, r29	; 62
     868:	0f be       	out	0x3f, r0	; 63
     86a:	cd bf       	out	0x3d, r28	; 61
     86c:	7b 01       	movw	r14, r22
     86e:	8c 01       	movw	r16, r24
     870:	d4 2e       	mov	r13, r20
     872:	d8 0e       	add	r13, r24
     874:	f8 01       	movw	r30, r16
     876:	80 81       	ld	r24, Z
     878:	0f 5f       	subi	r16, 0xFF	; 255
     87a:	1f 4f       	sbci	r17, 0xFF	; 255
     87c:	8f b9       	out	0x0f, r24	; 15
     87e:	ae 01       	movw	r20, r28
     880:	4f 5f       	subi	r20, 0xFF	; 255
     882:	5f 4f       	sbci	r21, 0xFF	; 255
     884:	62 e3       	ldi	r22, 0x32	; 50
     886:	70 e0       	ldi	r23, 0x00	; 0
     888:	80 e0       	ldi	r24, 0x00	; 0
     88a:	90 e0       	ldi	r25, 0x00	; 0
     88c:	df d7       	rcall	.+4030   	; 0x184c <HAL_get_expired_time_ms>
     88e:	77 9b       	sbis	0x0e, 7	; 14
     890:	07 c0       	rjmp	.+14     	; 0x8a0 <M128_SPI_multi_swap+0x52>
     892:	f7 01       	movw	r30, r14
     894:	8f b1       	in	r24, 0x0f	; 15
     896:	81 93       	st	Z+, r24
     898:	d0 16       	cp	r13, r16
     89a:	91 f0       	breq	.+36     	; 0x8c0 <M128_SPI_multi_swap+0x72>
     89c:	7f 01       	movw	r14, r30
     89e:	ea cf       	rjmp	.-44     	; 0x874 <M128_SPI_multi_swap+0x26>
     8a0:	89 81       	ldd	r24, Y+1	; 0x01
     8a2:	9a 81       	ldd	r25, Y+2	; 0x02
     8a4:	ab 81       	ldd	r26, Y+3	; 0x03
     8a6:	bc 81       	ldd	r27, Y+4	; 0x04
     8a8:	8d 83       	std	Y+5, r24	; 0x05
     8aa:	9e 83       	std	Y+6, r25	; 0x06
     8ac:	af 83       	std	Y+7, r26	; 0x07
     8ae:	b8 87       	std	Y+8, r27	; 0x08
     8b0:	bc 01       	movw	r22, r24
     8b2:	cd 01       	movw	r24, r26
     8b4:	f5 d7       	rcall	.+4074   	; 0x18a0 <HAL_timeout_test>
     8b6:	88 23       	and	r24, r24
     8b8:	51 f3       	breq	.-44     	; 0x88e <M128_SPI_multi_swap+0x40>
     8ba:	81 e0       	ldi	r24, 0x01	; 1
     8bc:	80 93 3f 01 	sts	0x013F, r24	; 0x80013f <SPI_MasterInst+0x14>
     8c0:	28 96       	adiw	r28, 0x08	; 8
     8c2:	0f b6       	in	r0, 0x3f	; 63
     8c4:	f8 94       	cli
     8c6:	de bf       	out	0x3e, r29	; 62
     8c8:	0f be       	out	0x3f, r0	; 63
     8ca:	cd bf       	out	0x3d, r28	; 61
     8cc:	df 91       	pop	r29
     8ce:	cf 91       	pop	r28
     8d0:	1f 91       	pop	r17
     8d2:	0f 91       	pop	r16
     8d4:	ff 90       	pop	r15
     8d6:	ef 90       	pop	r14
     8d8:	df 90       	pop	r13
     8da:	08 95       	ret

000008dc <M128_SPI_swap>:
     8dc:	cf 93       	push	r28
     8de:	df 93       	push	r29
     8e0:	cd b7       	in	r28, 0x3d	; 61
     8e2:	de b7       	in	r29, 0x3e	; 62
     8e4:	28 97       	sbiw	r28, 0x08	; 8
     8e6:	0f b6       	in	r0, 0x3f	; 63
     8e8:	f8 94       	cli
     8ea:	de bf       	out	0x3e, r29	; 62
     8ec:	0f be       	out	0x3f, r0	; 63
     8ee:	cd bf       	out	0x3d, r28	; 61
     8f0:	8f b9       	out	0x0f, r24	; 15
     8f2:	ae 01       	movw	r20, r28
     8f4:	4f 5f       	subi	r20, 0xFF	; 255
     8f6:	5f 4f       	sbci	r21, 0xFF	; 255
     8f8:	62 e3       	ldi	r22, 0x32	; 50
     8fa:	70 e0       	ldi	r23, 0x00	; 0
     8fc:	80 e0       	ldi	r24, 0x00	; 0
     8fe:	90 e0       	ldi	r25, 0x00	; 0
     900:	a5 d7       	rcall	.+3914   	; 0x184c <HAL_get_expired_time_ms>
     902:	77 9b       	sbis	0x0e, 7	; 14
     904:	02 c0       	rjmp	.+4      	; 0x90a <M128_SPI_swap+0x2e>
     906:	8f b1       	in	r24, 0x0f	; 15
     908:	11 c0       	rjmp	.+34     	; 0x92c <M128_SPI_swap+0x50>
     90a:	89 81       	ldd	r24, Y+1	; 0x01
     90c:	9a 81       	ldd	r25, Y+2	; 0x02
     90e:	ab 81       	ldd	r26, Y+3	; 0x03
     910:	bc 81       	ldd	r27, Y+4	; 0x04
     912:	8d 83       	std	Y+5, r24	; 0x05
     914:	9e 83       	std	Y+6, r25	; 0x06
     916:	af 83       	std	Y+7, r26	; 0x07
     918:	b8 87       	std	Y+8, r27	; 0x08
     91a:	bc 01       	movw	r22, r24
     91c:	cd 01       	movw	r24, r26
     91e:	c0 d7       	rcall	.+3968   	; 0x18a0 <HAL_timeout_test>
     920:	88 23       	and	r24, r24
     922:	79 f3       	breq	.-34     	; 0x902 <M128_SPI_swap+0x26>
     924:	81 e0       	ldi	r24, 0x01	; 1
     926:	80 93 3f 01 	sts	0x013F, r24	; 0x80013f <SPI_MasterInst+0x14>
     92a:	80 e0       	ldi	r24, 0x00	; 0
     92c:	28 96       	adiw	r28, 0x08	; 8
     92e:	0f b6       	in	r0, 0x3f	; 63
     930:	f8 94       	cli
     932:	de bf       	out	0x3e, r29	; 62
     934:	0f be       	out	0x3f, r0	; 63
     936:	cd bf       	out	0x3d, r28	; 61
     938:	df 91       	pop	r29
     93a:	cf 91       	pop	r28
     93c:	08 95       	ret

0000093e <M128_SPI_Master_init>:
     93e:	0e 94 c5 0c 	call	0x198a	; 0x198a <ASABUS_ID_init>
     942:	87 b3       	in	r24, 0x17	; 23
     944:	87 60       	ori	r24, 0x07	; 7
     946:	87 bb       	out	0x17, r24	; 23
     948:	bb 98       	cbi	0x17, 3	; 23
     94a:	e1 e6       	ldi	r30, 0x61	; 97
     94c:	f0 e0       	ldi	r31, 0x00	; 0
     94e:	80 81       	ld	r24, Z
     950:	80 61       	ori	r24, 0x10	; 16
     952:	80 83       	st	Z, r24
     954:	8d b1       	in	r24, 0x0d	; 13
     956:	83 65       	ori	r24, 0x53	; 83
     958:	8d b9       	out	0x0d, r24	; 13
     95a:	08 95       	ret

0000095c <M128_SPI_disable_cs>:
     95c:	88 30       	cpi	r24, 0x08	; 8
     95e:	00 f1       	brcs	.+64     	; 0x9a0 <M128_SPI_disable_cs+0x44>
     960:	8a 30       	cpi	r24, 0x0A	; 10
     962:	c1 f0       	breq	.+48     	; 0x994 <M128_SPI_disable_cs+0x38>
     964:	28 f4       	brcc	.+10     	; 0x970 <M128_SPI_disable_cs+0x14>
     966:	88 30       	cpi	r24, 0x08	; 8
     968:	31 f0       	breq	.+12     	; 0x976 <M128_SPI_disable_cs+0x1a>
     96a:	89 30       	cpi	r24, 0x09	; 9
     96c:	39 f0       	breq	.+14     	; 0x97c <M128_SPI_disable_cs+0x20>
     96e:	08 95       	ret
     970:	8b 30       	cpi	r24, 0x0B	; 11
     972:	99 f0       	breq	.+38     	; 0x99a <M128_SPI_disable_cs+0x3e>
     974:	08 95       	ret
     976:	bc 9a       	sbi	0x17, 4	; 23
     978:	c4 9a       	sbi	0x18, 4	; 24
     97a:	08 95       	ret
     97c:	98 b3       	in	r25, 0x18	; 24
     97e:	87 b3       	in	r24, 0x17	; 23
     980:	21 e0       	ldi	r18, 0x01	; 1
     982:	30 e0       	ldi	r19, 0x00	; 0
     984:	01 c0       	rjmp	.+2      	; 0x988 <M128_SPI_disable_cs+0x2c>
     986:	22 0f       	add	r18, r18
     988:	9a 95       	dec	r25
     98a:	ea f7       	brpl	.-6      	; 0x986 <M128_SPI_disable_cs+0x2a>
     98c:	82 2b       	or	r24, r18
     98e:	87 bb       	out	0x17, r24	; 23
     990:	c5 9a       	sbi	0x18, 5	; 24
     992:	08 95       	ret
     994:	be 9a       	sbi	0x17, 6	; 23
     996:	c6 9a       	sbi	0x18, 6	; 24
     998:	08 95       	ret
     99a:	bf 9a       	sbi	0x17, 7	; 23
     99c:	c7 9a       	sbi	0x18, 7	; 24
     99e:	08 95       	ret
     9a0:	80 91 62 00 	lds	r24, 0x0062	; 0x800062 <__TEXT_REGION_LENGTH__+0x7e0062>
     9a4:	80 61       	ori	r24, 0x10	; 16
     9a6:	80 93 62 00 	sts	0x0062, r24	; 0x800062 <__TEXT_REGION_LENGTH__+0x7e0062>
     9aa:	08 95       	ret

000009ac <M128_SPI_enable_cs>:
     9ac:	88 30       	cpi	r24, 0x08	; 8
     9ae:	b8 f0       	brcs	.+46     	; 0x9de <M128_SPI_enable_cs+0x32>
     9b0:	8a 30       	cpi	r24, 0x0A	; 10
     9b2:	79 f0       	breq	.+30     	; 0x9d2 <M128_SPI_enable_cs+0x26>
     9b4:	28 f4       	brcc	.+10     	; 0x9c0 <M128_SPI_enable_cs+0x14>
     9b6:	88 30       	cpi	r24, 0x08	; 8
     9b8:	31 f0       	breq	.+12     	; 0x9c6 <M128_SPI_enable_cs+0x1a>
     9ba:	89 30       	cpi	r24, 0x09	; 9
     9bc:	39 f0       	breq	.+14     	; 0x9cc <M128_SPI_enable_cs+0x20>
     9be:	08 95       	ret
     9c0:	8b 30       	cpi	r24, 0x0B	; 11
     9c2:	51 f0       	breq	.+20     	; 0x9d8 <M128_SPI_enable_cs+0x2c>
     9c4:	08 95       	ret
     9c6:	bc 9a       	sbi	0x17, 4	; 23
     9c8:	c4 98       	cbi	0x18, 4	; 24
     9ca:	08 95       	ret
     9cc:	c5 9a       	sbi	0x18, 5	; 24
     9ce:	c5 98       	cbi	0x18, 5	; 24
     9d0:	08 95       	ret
     9d2:	c6 9a       	sbi	0x18, 6	; 24
     9d4:	c6 98       	cbi	0x18, 6	; 24
     9d6:	08 95       	ret
     9d8:	c7 9a       	sbi	0x18, 7	; 24
     9da:	c7 98       	cbi	0x18, 7	; 24
     9dc:	08 95       	ret
     9de:	ca d7       	rcall	.+3988   	; 0x1974 <ASABUS_ID_set>
     9e0:	80 91 62 00 	lds	r24, 0x0062	; 0x800062 <__TEXT_REGION_LENGTH__+0x7e0062>
     9e4:	8f 7e       	andi	r24, 0xEF	; 239
     9e6:	80 93 62 00 	sts	0x0062, r24	; 0x800062 <__TEXT_REGION_LENGTH__+0x7e0062>
     9ea:	08 95       	ret

000009ec <PWM_fpt>:
     9ec:	fc 01       	movw	r30, r24
     9ee:	48 30       	cpi	r20, 0x08	; 8
     9f0:	08 f0       	brcs	.+2      	; 0x9f4 <PWM_fpt+0x8>
     9f2:	4a c0       	rjmp	.+148    	; 0xa88 <PWM_fpt+0x9c>
     9f4:	8a 33       	cpi	r24, 0x3A	; 58
     9f6:	91 05       	cpc	r25, r1
     9f8:	e1 f1       	breq	.+120    	; 0xa72 <PWM_fpt+0x86>
     9fa:	87 33       	cpi	r24, 0x37	; 55
     9fc:	91 05       	cpc	r25, r1
     9fe:	c9 f1       	breq	.+114    	; 0xa72 <PWM_fpt+0x86>
     a00:	84 33       	cpi	r24, 0x34	; 52
     a02:	91 05       	cpc	r25, r1
     a04:	b1 f1       	breq	.+108    	; 0xa72 <PWM_fpt+0x86>
     a06:	81 33       	cpi	r24, 0x31	; 49
     a08:	91 05       	cpc	r25, r1
     a0a:	99 f1       	breq	.+102    	; 0xa72 <PWM_fpt+0x86>
     a0c:	82 32       	cpi	r24, 0x22	; 34
     a0e:	91 05       	cpc	r25, r1
     a10:	81 f1       	breq	.+96     	; 0xa72 <PWM_fpt+0x86>
     a12:	81 36       	cpi	r24, 0x61	; 97
     a14:	91 05       	cpc	r25, r1
     a16:	69 f1       	breq	.+90     	; 0xa72 <PWM_fpt+0x86>
     a18:	87 35       	cpi	r24, 0x57	; 87
     a1a:	91 05       	cpc	r25, r1
     a1c:	51 f1       	breq	.+84     	; 0xa72 <PWM_fpt+0x86>
     a1e:	86 35       	cpi	r24, 0x56	; 86
     a20:	91 05       	cpc	r25, r1
     a22:	39 f1       	breq	.+78     	; 0xa72 <PWM_fpt+0x86>
     a24:	8d 37       	cpi	r24, 0x7D	; 125
     a26:	91 05       	cpc	r25, r1
     a28:	21 f1       	breq	.+72     	; 0xa72 <PWM_fpt+0x86>
     a2a:	8c 37       	cpi	r24, 0x7C	; 124
     a2c:	91 05       	cpc	r25, r1
     a2e:	09 f1       	breq	.+66     	; 0xa72 <PWM_fpt+0x86>
     a30:	80 34       	cpi	r24, 0x40	; 64
     a32:	91 05       	cpc	r25, r1
     a34:	f1 f0       	breq	.+60     	; 0xa72 <PWM_fpt+0x86>
     a36:	80 35       	cpi	r24, 0x50	; 80
     a38:	91 05       	cpc	r25, r1
     a3a:	d9 f0       	breq	.+54     	; 0xa72 <PWM_fpt+0x86>
     a3c:	83 35       	cpi	r24, 0x53	; 83
     a3e:	91 05       	cpc	r25, r1
     a40:	c1 f0       	breq	.+48     	; 0xa72 <PWM_fpt+0x86>
     a42:	8f 34       	cpi	r24, 0x4F	; 79
     a44:	91 05       	cpc	r25, r1
     a46:	a9 f0       	breq	.+42     	; 0xa72 <PWM_fpt+0x86>
     a48:	8e 34       	cpi	r24, 0x4E	; 78
     a4a:	91 05       	cpc	r25, r1
     a4c:	91 f0       	breq	.+36     	; 0xa72 <PWM_fpt+0x86>
     a4e:	8a 37       	cpi	r24, 0x7A	; 122
     a50:	91 05       	cpc	r25, r1
     a52:	79 f0       	breq	.+30     	; 0xa72 <PWM_fpt+0x86>
     a54:	88 32       	cpi	r24, 0x28	; 40
     a56:	91 05       	cpc	r25, r1
     a58:	61 f0       	breq	.+24     	; 0xa72 <PWM_fpt+0x86>
     a5a:	85 34       	cpi	r24, 0x45	; 69
     a5c:	91 05       	cpc	r25, r1
     a5e:	49 f0       	breq	.+18     	; 0xa72 <PWM_fpt+0x86>
     a60:	8b 38       	cpi	r24, 0x8B	; 139
     a62:	91 05       	cpc	r25, r1
     a64:	31 f0       	breq	.+12     	; 0xa72 <PWM_fpt+0x86>
     a66:	8a 38       	cpi	r24, 0x8A	; 138
     a68:	91 05       	cpc	r25, r1
     a6a:	19 f0       	breq	.+6      	; 0xa72 <PWM_fpt+0x86>
     a6c:	8c 38       	cpi	r24, 0x8C	; 140
     a6e:	91 05       	cpc	r25, r1
     a70:	69 f4       	brne	.+26     	; 0xa8c <PWM_fpt+0xa0>
     a72:	80 81       	ld	r24, Z
     a74:	01 c0       	rjmp	.+2      	; 0xa78 <PWM_fpt+0x8c>
     a76:	22 0f       	add	r18, r18
     a78:	4a 95       	dec	r20
     a7a:	ea f7       	brpl	.-6      	; 0xa76 <PWM_fpt+0x8a>
     a7c:	28 27       	eor	r18, r24
     a7e:	26 23       	and	r18, r22
     a80:	28 27       	eor	r18, r24
     a82:	20 83       	st	Z, r18
     a84:	80 e0       	ldi	r24, 0x00	; 0
     a86:	08 95       	ret
     a88:	85 e0       	ldi	r24, 0x05	; 5
     a8a:	08 95       	ret
     a8c:	82 e0       	ldi	r24, 0x02	; 2
     a8e:	08 95       	ret

00000a90 <PWM_fgt>:
     a90:	fc 01       	movw	r30, r24
     a92:	86 2f       	mov	r24, r22
     a94:	d9 01       	movw	r26, r18
     a96:	48 30       	cpi	r20, 0x08	; 8
     a98:	88 f4       	brcc	.+34     	; 0xabc <PWM_fgt+0x2c>
     a9a:	e6 35       	cpi	r30, 0x56	; 86
     a9c:	f1 05       	cpc	r31, r1
     a9e:	19 f0       	breq	.+6      	; 0xaa6 <PWM_fgt+0x16>
     aa0:	ec 37       	cpi	r30, 0x7C	; 124
     aa2:	f1 05       	cpc	r31, r1
     aa4:	69 f4       	brne	.+26     	; 0xac0 <PWM_fgt+0x30>
     aa6:	60 81       	ld	r22, Z
     aa8:	68 23       	and	r22, r24
     aaa:	70 e0       	ldi	r23, 0x00	; 0
     aac:	02 c0       	rjmp	.+4      	; 0xab2 <PWM_fgt+0x22>
     aae:	75 95       	asr	r23
     ab0:	67 95       	ror	r22
     ab2:	4a 95       	dec	r20
     ab4:	e2 f7       	brpl	.-8      	; 0xaae <PWM_fgt+0x1e>
     ab6:	6c 93       	st	X, r22
     ab8:	80 e0       	ldi	r24, 0x00	; 0
     aba:	08 95       	ret
     abc:	85 e0       	ldi	r24, 0x05	; 5
     abe:	08 95       	ret
     ac0:	82 e0       	ldi	r24, 0x02	; 2
     ac2:	08 95       	ret

00000ac4 <TIM_get>:
     ac4:	fc 01       	movw	r30, r24
     ac6:	da 01       	movw	r26, r20
     ac8:	8f ef       	ldi	r24, 0xFF	; 255
     aca:	86 0f       	add	r24, r22
     acc:	82 30       	cpi	r24, 0x02	; 2
     ace:	d0 f4       	brcc	.+52     	; 0xb04 <TIM_get+0x40>
     ad0:	e2 35       	cpi	r30, 0x52	; 82
     ad2:	f1 05       	cpc	r31, r1
     ad4:	19 f0       	breq	.+6      	; 0xadc <TIM_get+0x18>
     ad6:	e4 34       	cpi	r30, 0x44	; 68
     ad8:	f1 05       	cpc	r31, r1
     ada:	31 f4       	brne	.+12     	; 0xae8 <TIM_get+0x24>
     adc:	61 30       	cpi	r22, 0x01	; 1
     ade:	91 f4       	brne	.+36     	; 0xb04 <TIM_get+0x40>
     ae0:	8c 91       	ld	r24, X
     ae2:	80 83       	st	Z, r24
     ae4:	80 e0       	ldi	r24, 0x00	; 0
     ae6:	08 95       	ret
     ae8:	e6 34       	cpi	r30, 0x46	; 70
     aea:	f1 05       	cpc	r31, r1
     aec:	19 f0       	breq	.+6      	; 0xaf4 <TIM_get+0x30>
     aee:	e0 38       	cpi	r30, 0x80	; 128
     af0:	f1 05       	cpc	r31, r1
     af2:	51 f4       	brne	.+20     	; 0xb08 <TIM_get+0x44>
     af4:	8c 91       	ld	r24, X
     af6:	80 83       	st	Z, r24
     af8:	62 30       	cpi	r22, 0x02	; 2
     afa:	a1 f7       	brne	.-24     	; 0xae4 <TIM_get+0x20>
     afc:	11 96       	adiw	r26, 0x01	; 1
     afe:	8c 91       	ld	r24, X
     b00:	81 83       	std	Z+1, r24	; 0x01
     b02:	f0 cf       	rjmp	.-32     	; 0xae4 <TIM_get+0x20>
     b04:	83 e0       	ldi	r24, 0x03	; 3
     b06:	08 95       	ret
     b08:	82 e0       	ldi	r24, 0x02	; 2
     b0a:	08 95       	ret

00000b0c <PWM_get>:
     b0c:	fc 01       	movw	r30, r24
     b0e:	da 01       	movw	r26, r20
     b10:	8f ef       	ldi	r24, 0xFF	; 255
     b12:	86 0f       	add	r24, r22
     b14:	82 30       	cpi	r24, 0x02	; 2
     b16:	b8 f5       	brcc	.+110    	; 0xb86 <PWM_get+0x7a>
     b18:	cf 01       	movw	r24, r30
     b1a:	81 55       	subi	r24, 0x51	; 81
     b1c:	91 09       	sbc	r25, r1
     b1e:	02 97       	sbiw	r24, 0x02	; 2
     b20:	30 f0       	brcs	.+12     	; 0xb2e <PWM_get+0x22>
     b22:	e3 34       	cpi	r30, 0x43	; 67
     b24:	f1 05       	cpc	r31, r1
     b26:	19 f0       	breq	.+6      	; 0xb2e <PWM_get+0x22>
     b28:	e4 34       	cpi	r30, 0x44	; 68
     b2a:	f1 05       	cpc	r31, r1
     b2c:	31 f4       	brne	.+12     	; 0xb3a <PWM_get+0x2e>
     b2e:	61 30       	cpi	r22, 0x01	; 1
     b30:	51 f5       	brne	.+84     	; 0xb86 <PWM_get+0x7a>
     b32:	8c 91       	ld	r24, X
     b34:	80 83       	st	Z, r24
     b36:	80 e0       	ldi	r24, 0x00	; 0
     b38:	08 95       	ret
     b3a:	e6 34       	cpi	r30, 0x46	; 70
     b3c:	f1 05       	cpc	r31, r1
     b3e:	d9 f0       	breq	.+54     	; 0xb76 <PWM_get+0x6a>
     b40:	ea 34       	cpi	r30, 0x4A	; 74
     b42:	f1 05       	cpc	r31, r1
     b44:	c1 f0       	breq	.+48     	; 0xb76 <PWM_get+0x6a>
     b46:	e8 34       	cpi	r30, 0x48	; 72
     b48:	f1 05       	cpc	r31, r1
     b4a:	a9 f0       	breq	.+42     	; 0xb76 <PWM_get+0x6a>
     b4c:	e8 37       	cpi	r30, 0x78	; 120
     b4e:	f1 05       	cpc	r31, r1
     b50:	91 f0       	breq	.+36     	; 0xb76 <PWM_get+0x6a>
     b52:	ec 34       	cpi	r30, 0x4C	; 76
     b54:	f1 05       	cpc	r31, r1
     b56:	79 f0       	breq	.+30     	; 0xb76 <PWM_get+0x6a>
     b58:	e0 38       	cpi	r30, 0x80	; 128
     b5a:	f1 05       	cpc	r31, r1
     b5c:	61 f0       	breq	.+24     	; 0xb76 <PWM_get+0x6a>
     b5e:	e6 38       	cpi	r30, 0x86	; 134
     b60:	f1 05       	cpc	r31, r1
     b62:	49 f0       	breq	.+18     	; 0xb76 <PWM_get+0x6a>
     b64:	e4 38       	cpi	r30, 0x84	; 132
     b66:	f1 05       	cpc	r31, r1
     b68:	31 f0       	breq	.+12     	; 0xb76 <PWM_get+0x6a>
     b6a:	e2 38       	cpi	r30, 0x82	; 130
     b6c:	f1 05       	cpc	r31, r1
     b6e:	19 f0       	breq	.+6      	; 0xb76 <PWM_get+0x6a>
     b70:	e8 38       	cpi	r30, 0x88	; 136
     b72:	f1 05       	cpc	r31, r1
     b74:	51 f4       	brne	.+20     	; 0xb8a <PWM_get+0x7e>
     b76:	8c 91       	ld	r24, X
     b78:	80 83       	st	Z, r24
     b7a:	62 30       	cpi	r22, 0x02	; 2
     b7c:	e1 f6       	brne	.-72     	; 0xb36 <PWM_get+0x2a>
     b7e:	11 96       	adiw	r26, 0x01	; 1
     b80:	8c 91       	ld	r24, X
     b82:	81 83       	std	Z+1, r24	; 0x01
     b84:	d8 cf       	rjmp	.-80     	; 0xb36 <PWM_get+0x2a>
     b86:	83 e0       	ldi	r24, 0x03	; 3
     b88:	08 95       	ret
     b8a:	82 e0       	ldi	r24, 0x02	; 2
     b8c:	08 95       	ret

00000b8e <USE_C4MLIB_INTERRUPT>:
     b8e:	08 95       	ret

00000b90 <__INT0_vect_routine1>:
     b90:	08 95       	ret

00000b92 <__INT0_vect_routine>:
     b92:	f9 ca       	rjmp	.-2574   	; 0x186 <INT0_vect_routine1>

00000b94 <__vector_1>:
     b94:	1f 92       	push	r1
     b96:	0f 92       	push	r0
     b98:	0f b6       	in	r0, 0x3f	; 63
     b9a:	0f 92       	push	r0
     b9c:	11 24       	eor	r1, r1
     b9e:	0b b6       	in	r0, 0x3b	; 59
     ba0:	0f 92       	push	r0
     ba2:	2f 93       	push	r18
     ba4:	3f 93       	push	r19
     ba6:	4f 93       	push	r20
     ba8:	5f 93       	push	r21
     baa:	6f 93       	push	r22
     bac:	7f 93       	push	r23
     bae:	8f 93       	push	r24
     bb0:	9f 93       	push	r25
     bb2:	af 93       	push	r26
     bb4:	bf 93       	push	r27
     bb6:	ef 93       	push	r30
     bb8:	ff 93       	push	r31
     bba:	eb df       	rcall	.-42     	; 0xb92 <__INT0_vect_routine>
     bbc:	ff 91       	pop	r31
     bbe:	ef 91       	pop	r30
     bc0:	bf 91       	pop	r27
     bc2:	af 91       	pop	r26
     bc4:	9f 91       	pop	r25
     bc6:	8f 91       	pop	r24
     bc8:	7f 91       	pop	r23
     bca:	6f 91       	pop	r22
     bcc:	5f 91       	pop	r21
     bce:	4f 91       	pop	r20
     bd0:	3f 91       	pop	r19
     bd2:	2f 91       	pop	r18
     bd4:	0f 90       	pop	r0
     bd6:	0b be       	out	0x3b, r0	; 59
     bd8:	0f 90       	pop	r0
     bda:	0f be       	out	0x3f, r0	; 63
     bdc:	0f 90       	pop	r0
     bde:	1f 90       	pop	r1
     be0:	18 95       	reti

00000be2 <__INT1_vect_routine1>:
     be2:	08 95       	ret

00000be4 <__INT1_vect_routine>:
     be4:	d9 ca       	rjmp	.-2638   	; 0x198 <INT1_vect_routine1>

00000be6 <__vector_2>:
     be6:	1f 92       	push	r1
     be8:	0f 92       	push	r0
     bea:	0f b6       	in	r0, 0x3f	; 63
     bec:	0f 92       	push	r0
     bee:	11 24       	eor	r1, r1
     bf0:	0b b6       	in	r0, 0x3b	; 59
     bf2:	0f 92       	push	r0
     bf4:	2f 93       	push	r18
     bf6:	3f 93       	push	r19
     bf8:	4f 93       	push	r20
     bfa:	5f 93       	push	r21
     bfc:	6f 93       	push	r22
     bfe:	7f 93       	push	r23
     c00:	8f 93       	push	r24
     c02:	9f 93       	push	r25
     c04:	af 93       	push	r26
     c06:	bf 93       	push	r27
     c08:	ef 93       	push	r30
     c0a:	ff 93       	push	r31
     c0c:	eb df       	rcall	.-42     	; 0xbe4 <__INT1_vect_routine>
     c0e:	ff 91       	pop	r31
     c10:	ef 91       	pop	r30
     c12:	bf 91       	pop	r27
     c14:	af 91       	pop	r26
     c16:	9f 91       	pop	r25
     c18:	8f 91       	pop	r24
     c1a:	7f 91       	pop	r23
     c1c:	6f 91       	pop	r22
     c1e:	5f 91       	pop	r21
     c20:	4f 91       	pop	r20
     c22:	3f 91       	pop	r19
     c24:	2f 91       	pop	r18
     c26:	0f 90       	pop	r0
     c28:	0b be       	out	0x3b, r0	; 59
     c2a:	0f 90       	pop	r0
     c2c:	0f be       	out	0x3f, r0	; 63
     c2e:	0f 90       	pop	r0
     c30:	1f 90       	pop	r1
     c32:	18 95       	reti

00000c34 <__INT2_vect_routine1>:
     c34:	08 95       	ret

00000c36 <__INT2_vect_routine>:
     c36:	b9 ca       	rjmp	.-2702   	; 0x1aa <INT2_vect_routine1>

00000c38 <__vector_3>:
     c38:	1f 92       	push	r1
     c3a:	0f 92       	push	r0
     c3c:	0f b6       	in	r0, 0x3f	; 63
     c3e:	0f 92       	push	r0
     c40:	11 24       	eor	r1, r1
     c42:	0b b6       	in	r0, 0x3b	; 59
     c44:	0f 92       	push	r0
     c46:	2f 93       	push	r18
     c48:	3f 93       	push	r19
     c4a:	4f 93       	push	r20
     c4c:	5f 93       	push	r21
     c4e:	6f 93       	push	r22
     c50:	7f 93       	push	r23
     c52:	8f 93       	push	r24
     c54:	9f 93       	push	r25
     c56:	af 93       	push	r26
     c58:	bf 93       	push	r27
     c5a:	ef 93       	push	r30
     c5c:	ff 93       	push	r31
     c5e:	eb df       	rcall	.-42     	; 0xc36 <__INT2_vect_routine>
     c60:	ff 91       	pop	r31
     c62:	ef 91       	pop	r30
     c64:	bf 91       	pop	r27
     c66:	af 91       	pop	r26
     c68:	9f 91       	pop	r25
     c6a:	8f 91       	pop	r24
     c6c:	7f 91       	pop	r23
     c6e:	6f 91       	pop	r22
     c70:	5f 91       	pop	r21
     c72:	4f 91       	pop	r20
     c74:	3f 91       	pop	r19
     c76:	2f 91       	pop	r18
     c78:	0f 90       	pop	r0
     c7a:	0b be       	out	0x3b, r0	; 59
     c7c:	0f 90       	pop	r0
     c7e:	0f be       	out	0x3f, r0	; 63
     c80:	0f 90       	pop	r0
     c82:	1f 90       	pop	r1
     c84:	18 95       	reti

00000c86 <__INT3_vect_routine1>:
     c86:	08 95       	ret

00000c88 <__INT3_vect_routine>:
     c88:	99 ca       	rjmp	.-2766   	; 0x1bc <INT3_vect_routine1>

00000c8a <__vector_4>:
     c8a:	1f 92       	push	r1
     c8c:	0f 92       	push	r0
     c8e:	0f b6       	in	r0, 0x3f	; 63
     c90:	0f 92       	push	r0
     c92:	11 24       	eor	r1, r1
     c94:	0b b6       	in	r0, 0x3b	; 59
     c96:	0f 92       	push	r0
     c98:	2f 93       	push	r18
     c9a:	3f 93       	push	r19
     c9c:	4f 93       	push	r20
     c9e:	5f 93       	push	r21
     ca0:	6f 93       	push	r22
     ca2:	7f 93       	push	r23
     ca4:	8f 93       	push	r24
     ca6:	9f 93       	push	r25
     ca8:	af 93       	push	r26
     caa:	bf 93       	push	r27
     cac:	ef 93       	push	r30
     cae:	ff 93       	push	r31
     cb0:	eb df       	rcall	.-42     	; 0xc88 <__INT3_vect_routine>
     cb2:	ff 91       	pop	r31
     cb4:	ef 91       	pop	r30
     cb6:	bf 91       	pop	r27
     cb8:	af 91       	pop	r26
     cba:	9f 91       	pop	r25
     cbc:	8f 91       	pop	r24
     cbe:	7f 91       	pop	r23
     cc0:	6f 91       	pop	r22
     cc2:	5f 91       	pop	r21
     cc4:	4f 91       	pop	r20
     cc6:	3f 91       	pop	r19
     cc8:	2f 91       	pop	r18
     cca:	0f 90       	pop	r0
     ccc:	0b be       	out	0x3b, r0	; 59
     cce:	0f 90       	pop	r0
     cd0:	0f be       	out	0x3f, r0	; 63
     cd2:	0f 90       	pop	r0
     cd4:	1f 90       	pop	r1
     cd6:	18 95       	reti

00000cd8 <__INT4_vect_routine1>:
     cd8:	08 95       	ret

00000cda <__INT4_vect_routine>:
     cda:	79 ca       	rjmp	.-2830   	; 0x1ce <INT4_vect_routine1>

00000cdc <__vector_5>:
     cdc:	1f 92       	push	r1
     cde:	0f 92       	push	r0
     ce0:	0f b6       	in	r0, 0x3f	; 63
     ce2:	0f 92       	push	r0
     ce4:	11 24       	eor	r1, r1
     ce6:	0b b6       	in	r0, 0x3b	; 59
     ce8:	0f 92       	push	r0
     cea:	2f 93       	push	r18
     cec:	3f 93       	push	r19
     cee:	4f 93       	push	r20
     cf0:	5f 93       	push	r21
     cf2:	6f 93       	push	r22
     cf4:	7f 93       	push	r23
     cf6:	8f 93       	push	r24
     cf8:	9f 93       	push	r25
     cfa:	af 93       	push	r26
     cfc:	bf 93       	push	r27
     cfe:	ef 93       	push	r30
     d00:	ff 93       	push	r31
     d02:	eb df       	rcall	.-42     	; 0xcda <__INT4_vect_routine>
     d04:	ff 91       	pop	r31
     d06:	ef 91       	pop	r30
     d08:	bf 91       	pop	r27
     d0a:	af 91       	pop	r26
     d0c:	9f 91       	pop	r25
     d0e:	8f 91       	pop	r24
     d10:	7f 91       	pop	r23
     d12:	6f 91       	pop	r22
     d14:	5f 91       	pop	r21
     d16:	4f 91       	pop	r20
     d18:	3f 91       	pop	r19
     d1a:	2f 91       	pop	r18
     d1c:	0f 90       	pop	r0
     d1e:	0b be       	out	0x3b, r0	; 59
     d20:	0f 90       	pop	r0
     d22:	0f be       	out	0x3f, r0	; 63
     d24:	0f 90       	pop	r0
     d26:	1f 90       	pop	r1
     d28:	18 95       	reti

00000d2a <__INT5_vect_routine1>:
     d2a:	08 95       	ret

00000d2c <__INT5_vect_routine>:
     d2c:	59 ca       	rjmp	.-2894   	; 0x1e0 <INT5_vect_routine1>

00000d2e <__vector_6>:
     d2e:	1f 92       	push	r1
     d30:	0f 92       	push	r0
     d32:	0f b6       	in	r0, 0x3f	; 63
     d34:	0f 92       	push	r0
     d36:	11 24       	eor	r1, r1
     d38:	0b b6       	in	r0, 0x3b	; 59
     d3a:	0f 92       	push	r0
     d3c:	2f 93       	push	r18
     d3e:	3f 93       	push	r19
     d40:	4f 93       	push	r20
     d42:	5f 93       	push	r21
     d44:	6f 93       	push	r22
     d46:	7f 93       	push	r23
     d48:	8f 93       	push	r24
     d4a:	9f 93       	push	r25
     d4c:	af 93       	push	r26
     d4e:	bf 93       	push	r27
     d50:	ef 93       	push	r30
     d52:	ff 93       	push	r31
     d54:	eb df       	rcall	.-42     	; 0xd2c <__INT5_vect_routine>
     d56:	ff 91       	pop	r31
     d58:	ef 91       	pop	r30
     d5a:	bf 91       	pop	r27
     d5c:	af 91       	pop	r26
     d5e:	9f 91       	pop	r25
     d60:	8f 91       	pop	r24
     d62:	7f 91       	pop	r23
     d64:	6f 91       	pop	r22
     d66:	5f 91       	pop	r21
     d68:	4f 91       	pop	r20
     d6a:	3f 91       	pop	r19
     d6c:	2f 91       	pop	r18
     d6e:	0f 90       	pop	r0
     d70:	0b be       	out	0x3b, r0	; 59
     d72:	0f 90       	pop	r0
     d74:	0f be       	out	0x3f, r0	; 63
     d76:	0f 90       	pop	r0
     d78:	1f 90       	pop	r1
     d7a:	18 95       	reti

00000d7c <__INT6_vect_routine1>:
     d7c:	08 95       	ret

00000d7e <__INT6_vect_routine>:
     d7e:	39 ca       	rjmp	.-2958   	; 0x1f2 <INT6_vect_routine1>

00000d80 <__vector_7>:
     d80:	1f 92       	push	r1
     d82:	0f 92       	push	r0
     d84:	0f b6       	in	r0, 0x3f	; 63
     d86:	0f 92       	push	r0
     d88:	11 24       	eor	r1, r1
     d8a:	0b b6       	in	r0, 0x3b	; 59
     d8c:	0f 92       	push	r0
     d8e:	2f 93       	push	r18
     d90:	3f 93       	push	r19
     d92:	4f 93       	push	r20
     d94:	5f 93       	push	r21
     d96:	6f 93       	push	r22
     d98:	7f 93       	push	r23
     d9a:	8f 93       	push	r24
     d9c:	9f 93       	push	r25
     d9e:	af 93       	push	r26
     da0:	bf 93       	push	r27
     da2:	ef 93       	push	r30
     da4:	ff 93       	push	r31
     da6:	eb df       	rcall	.-42     	; 0xd7e <__INT6_vect_routine>
     da8:	ff 91       	pop	r31
     daa:	ef 91       	pop	r30
     dac:	bf 91       	pop	r27
     dae:	af 91       	pop	r26
     db0:	9f 91       	pop	r25
     db2:	8f 91       	pop	r24
     db4:	7f 91       	pop	r23
     db6:	6f 91       	pop	r22
     db8:	5f 91       	pop	r21
     dba:	4f 91       	pop	r20
     dbc:	3f 91       	pop	r19
     dbe:	2f 91       	pop	r18
     dc0:	0f 90       	pop	r0
     dc2:	0b be       	out	0x3b, r0	; 59
     dc4:	0f 90       	pop	r0
     dc6:	0f be       	out	0x3f, r0	; 63
     dc8:	0f 90       	pop	r0
     dca:	1f 90       	pop	r1
     dcc:	18 95       	reti

00000dce <__INT7_vect_routine1>:
     dce:	08 95       	ret

00000dd0 <__INT7_vect_routine>:
     dd0:	19 ca       	rjmp	.-3022   	; 0x204 <INT7_vect_routine1>

00000dd2 <__vector_8>:
     dd2:	1f 92       	push	r1
     dd4:	0f 92       	push	r0
     dd6:	0f b6       	in	r0, 0x3f	; 63
     dd8:	0f 92       	push	r0
     dda:	11 24       	eor	r1, r1
     ddc:	0b b6       	in	r0, 0x3b	; 59
     dde:	0f 92       	push	r0
     de0:	2f 93       	push	r18
     de2:	3f 93       	push	r19
     de4:	4f 93       	push	r20
     de6:	5f 93       	push	r21
     de8:	6f 93       	push	r22
     dea:	7f 93       	push	r23
     dec:	8f 93       	push	r24
     dee:	9f 93       	push	r25
     df0:	af 93       	push	r26
     df2:	bf 93       	push	r27
     df4:	ef 93       	push	r30
     df6:	ff 93       	push	r31
     df8:	eb df       	rcall	.-42     	; 0xdd0 <__INT7_vect_routine>
     dfa:	ff 91       	pop	r31
     dfc:	ef 91       	pop	r30
     dfe:	bf 91       	pop	r27
     e00:	af 91       	pop	r26
     e02:	9f 91       	pop	r25
     e04:	8f 91       	pop	r24
     e06:	7f 91       	pop	r23
     e08:	6f 91       	pop	r22
     e0a:	5f 91       	pop	r21
     e0c:	4f 91       	pop	r20
     e0e:	3f 91       	pop	r19
     e10:	2f 91       	pop	r18
     e12:	0f 90       	pop	r0
     e14:	0b be       	out	0x3b, r0	; 59
     e16:	0f 90       	pop	r0
     e18:	0f be       	out	0x3f, r0	; 63
     e1a:	0f 90       	pop	r0
     e1c:	1f 90       	pop	r1
     e1e:	18 95       	reti

00000e20 <__TIMER2_COMP_vect_routine1>:
     e20:	08 95       	ret

00000e22 <__TIMER2_COMP_vect_routine>:
     e22:	94 c9       	rjmp	.-3288   	; 0x14c <TIMER2_COMP_vect_routine1>

00000e24 <__vector_9>:
     e24:	1f 92       	push	r1
     e26:	0f 92       	push	r0
     e28:	0f b6       	in	r0, 0x3f	; 63
     e2a:	0f 92       	push	r0
     e2c:	11 24       	eor	r1, r1
     e2e:	0b b6       	in	r0, 0x3b	; 59
     e30:	0f 92       	push	r0
     e32:	2f 93       	push	r18
     e34:	3f 93       	push	r19
     e36:	4f 93       	push	r20
     e38:	5f 93       	push	r21
     e3a:	6f 93       	push	r22
     e3c:	7f 93       	push	r23
     e3e:	8f 93       	push	r24
     e40:	9f 93       	push	r25
     e42:	af 93       	push	r26
     e44:	bf 93       	push	r27
     e46:	ef 93       	push	r30
     e48:	ff 93       	push	r31
     e4a:	eb df       	rcall	.-42     	; 0xe22 <__TIMER2_COMP_vect_routine>
     e4c:	ff 91       	pop	r31
     e4e:	ef 91       	pop	r30
     e50:	bf 91       	pop	r27
     e52:	af 91       	pop	r26
     e54:	9f 91       	pop	r25
     e56:	8f 91       	pop	r24
     e58:	7f 91       	pop	r23
     e5a:	6f 91       	pop	r22
     e5c:	5f 91       	pop	r21
     e5e:	4f 91       	pop	r20
     e60:	3f 91       	pop	r19
     e62:	2f 91       	pop	r18
     e64:	0f 90       	pop	r0
     e66:	0b be       	out	0x3b, r0	; 59
     e68:	0f 90       	pop	r0
     e6a:	0f be       	out	0x3f, r0	; 63
     e6c:	0f 90       	pop	r0
     e6e:	1f 90       	pop	r1
     e70:	18 95       	reti

00000e72 <__TIMER2_OVF_vect_routine1>:
     e72:	08 95       	ret

00000e74 <__TIMER2_OVF_vect_routine>:
     e74:	62 c9       	rjmp	.-3388   	; 0x13a <TIMER2_OVF_vect_routine1>

00000e76 <__vector_10>:
     e76:	1f 92       	push	r1
     e78:	0f 92       	push	r0
     e7a:	0f b6       	in	r0, 0x3f	; 63
     e7c:	0f 92       	push	r0
     e7e:	11 24       	eor	r1, r1
     e80:	0b b6       	in	r0, 0x3b	; 59
     e82:	0f 92       	push	r0
     e84:	2f 93       	push	r18
     e86:	3f 93       	push	r19
     e88:	4f 93       	push	r20
     e8a:	5f 93       	push	r21
     e8c:	6f 93       	push	r22
     e8e:	7f 93       	push	r23
     e90:	8f 93       	push	r24
     e92:	9f 93       	push	r25
     e94:	af 93       	push	r26
     e96:	bf 93       	push	r27
     e98:	ef 93       	push	r30
     e9a:	ff 93       	push	r31
     e9c:	eb df       	rcall	.-42     	; 0xe74 <__TIMER2_OVF_vect_routine>
     e9e:	ff 91       	pop	r31
     ea0:	ef 91       	pop	r30
     ea2:	bf 91       	pop	r27
     ea4:	af 91       	pop	r26
     ea6:	9f 91       	pop	r25
     ea8:	8f 91       	pop	r24
     eaa:	7f 91       	pop	r23
     eac:	6f 91       	pop	r22
     eae:	5f 91       	pop	r21
     eb0:	4f 91       	pop	r20
     eb2:	3f 91       	pop	r19
     eb4:	2f 91       	pop	r18
     eb6:	0f 90       	pop	r0
     eb8:	0b be       	out	0x3b, r0	; 59
     eba:	0f 90       	pop	r0
     ebc:	0f be       	out	0x3f, r0	; 63
     ebe:	0f 90       	pop	r0
     ec0:	1f 90       	pop	r1
     ec2:	18 95       	reti

00000ec4 <__TIMER1_CAPT_vect_routine1>:
     ec4:	08 95       	ret

00000ec6 <__TIMER1_CAPT_vect_routine>:
     ec6:	fe cf       	rjmp	.-4      	; 0xec4 <__TIMER1_CAPT_vect_routine1>

00000ec8 <__vector_11>:
     ec8:	1f 92       	push	r1
     eca:	0f 92       	push	r0
     ecc:	0f b6       	in	r0, 0x3f	; 63
     ece:	0f 92       	push	r0
     ed0:	11 24       	eor	r1, r1
     ed2:	0b b6       	in	r0, 0x3b	; 59
     ed4:	0f 92       	push	r0
     ed6:	2f 93       	push	r18
     ed8:	3f 93       	push	r19
     eda:	4f 93       	push	r20
     edc:	5f 93       	push	r21
     ede:	6f 93       	push	r22
     ee0:	7f 93       	push	r23
     ee2:	8f 93       	push	r24
     ee4:	9f 93       	push	r25
     ee6:	af 93       	push	r26
     ee8:	bf 93       	push	r27
     eea:	ef 93       	push	r30
     eec:	ff 93       	push	r31
     eee:	eb df       	rcall	.-42     	; 0xec6 <__TIMER1_CAPT_vect_routine>
     ef0:	ff 91       	pop	r31
     ef2:	ef 91       	pop	r30
     ef4:	bf 91       	pop	r27
     ef6:	af 91       	pop	r26
     ef8:	9f 91       	pop	r25
     efa:	8f 91       	pop	r24
     efc:	7f 91       	pop	r23
     efe:	6f 91       	pop	r22
     f00:	5f 91       	pop	r21
     f02:	4f 91       	pop	r20
     f04:	3f 91       	pop	r19
     f06:	2f 91       	pop	r18
     f08:	0f 90       	pop	r0
     f0a:	0b be       	out	0x3b, r0	; 59
     f0c:	0f 90       	pop	r0
     f0e:	0f be       	out	0x3f, r0	; 63
     f10:	0f 90       	pop	r0
     f12:	1f 90       	pop	r1
     f14:	18 95       	reti

00000f16 <__TIMER1_COMPA_vect_routine1>:
     f16:	08 95       	ret

00000f18 <__TIMER1_COMPA_vect_routine>:
     f18:	05 c9       	rjmp	.-3574   	; 0x124 <TIMER1_COMPA_vect_routine1>

00000f1a <__vector_12>:
     f1a:	1f 92       	push	r1
     f1c:	0f 92       	push	r0
     f1e:	0f b6       	in	r0, 0x3f	; 63
     f20:	0f 92       	push	r0
     f22:	11 24       	eor	r1, r1
     f24:	0b b6       	in	r0, 0x3b	; 59
     f26:	0f 92       	push	r0
     f28:	2f 93       	push	r18
     f2a:	3f 93       	push	r19
     f2c:	4f 93       	push	r20
     f2e:	5f 93       	push	r21
     f30:	6f 93       	push	r22
     f32:	7f 93       	push	r23
     f34:	8f 93       	push	r24
     f36:	9f 93       	push	r25
     f38:	af 93       	push	r26
     f3a:	bf 93       	push	r27
     f3c:	ef 93       	push	r30
     f3e:	ff 93       	push	r31
     f40:	eb df       	rcall	.-42     	; 0xf18 <__TIMER1_COMPA_vect_routine>
     f42:	ff 91       	pop	r31
     f44:	ef 91       	pop	r30
     f46:	bf 91       	pop	r27
     f48:	af 91       	pop	r26
     f4a:	9f 91       	pop	r25
     f4c:	8f 91       	pop	r24
     f4e:	7f 91       	pop	r23
     f50:	6f 91       	pop	r22
     f52:	5f 91       	pop	r21
     f54:	4f 91       	pop	r20
     f56:	3f 91       	pop	r19
     f58:	2f 91       	pop	r18
     f5a:	0f 90       	pop	r0
     f5c:	0b be       	out	0x3b, r0	; 59
     f5e:	0f 90       	pop	r0
     f60:	0f be       	out	0x3f, r0	; 63
     f62:	0f 90       	pop	r0
     f64:	1f 90       	pop	r1
     f66:	18 95       	reti

00000f68 <__TIMER1_COMPB_vect_routine1>:
     f68:	08 95       	ret

00000f6a <__TIMER1_COMPB_vect_routine>:
     f6a:	e5 c8       	rjmp	.-3638   	; 0x136 <TIMER1_COMPB_vect_routine1>

00000f6c <__vector_13>:
     f6c:	1f 92       	push	r1
     f6e:	0f 92       	push	r0
     f70:	0f b6       	in	r0, 0x3f	; 63
     f72:	0f 92       	push	r0
     f74:	11 24       	eor	r1, r1
     f76:	0b b6       	in	r0, 0x3b	; 59
     f78:	0f 92       	push	r0
     f7a:	2f 93       	push	r18
     f7c:	3f 93       	push	r19
     f7e:	4f 93       	push	r20
     f80:	5f 93       	push	r21
     f82:	6f 93       	push	r22
     f84:	7f 93       	push	r23
     f86:	8f 93       	push	r24
     f88:	9f 93       	push	r25
     f8a:	af 93       	push	r26
     f8c:	bf 93       	push	r27
     f8e:	ef 93       	push	r30
     f90:	ff 93       	push	r31
     f92:	eb df       	rcall	.-42     	; 0xf6a <__TIMER1_COMPB_vect_routine>
     f94:	ff 91       	pop	r31
     f96:	ef 91       	pop	r30
     f98:	bf 91       	pop	r27
     f9a:	af 91       	pop	r26
     f9c:	9f 91       	pop	r25
     f9e:	8f 91       	pop	r24
     fa0:	7f 91       	pop	r23
     fa2:	6f 91       	pop	r22
     fa4:	5f 91       	pop	r21
     fa6:	4f 91       	pop	r20
     fa8:	3f 91       	pop	r19
     faa:	2f 91       	pop	r18
     fac:	0f 90       	pop	r0
     fae:	0b be       	out	0x3b, r0	; 59
     fb0:	0f 90       	pop	r0
     fb2:	0f be       	out	0x3f, r0	; 63
     fb4:	0f 90       	pop	r0
     fb6:	1f 90       	pop	r1
     fb8:	18 95       	reti

00000fba <__TIMER1_OVF_vect_routine1>:
     fba:	08 95       	ret

00000fbc <__TIMER1_OVF_vect_routine>:
     fbc:	aa c8       	rjmp	.-3756   	; 0x112 <TIMER1_OVF_vect_routine1>

00000fbe <__vector_14>:
     fbe:	1f 92       	push	r1
     fc0:	0f 92       	push	r0
     fc2:	0f b6       	in	r0, 0x3f	; 63
     fc4:	0f 92       	push	r0
     fc6:	11 24       	eor	r1, r1
     fc8:	0b b6       	in	r0, 0x3b	; 59
     fca:	0f 92       	push	r0
     fcc:	2f 93       	push	r18
     fce:	3f 93       	push	r19
     fd0:	4f 93       	push	r20
     fd2:	5f 93       	push	r21
     fd4:	6f 93       	push	r22
     fd6:	7f 93       	push	r23
     fd8:	8f 93       	push	r24
     fda:	9f 93       	push	r25
     fdc:	af 93       	push	r26
     fde:	bf 93       	push	r27
     fe0:	ef 93       	push	r30
     fe2:	ff 93       	push	r31
     fe4:	eb df       	rcall	.-42     	; 0xfbc <__TIMER1_OVF_vect_routine>
     fe6:	ff 91       	pop	r31
     fe8:	ef 91       	pop	r30
     fea:	bf 91       	pop	r27
     fec:	af 91       	pop	r26
     fee:	9f 91       	pop	r25
     ff0:	8f 91       	pop	r24
     ff2:	7f 91       	pop	r23
     ff4:	6f 91       	pop	r22
     ff6:	5f 91       	pop	r21
     ff8:	4f 91       	pop	r20
     ffa:	3f 91       	pop	r19
     ffc:	2f 91       	pop	r18
     ffe:	0f 90       	pop	r0
    1000:	0b be       	out	0x3b, r0	; 59
    1002:	0f 90       	pop	r0
    1004:	0f be       	out	0x3f, r0	; 63
    1006:	0f 90       	pop	r0
    1008:	1f 90       	pop	r1
    100a:	18 95       	reti

0000100c <__TIMER0_COMP_vect_routine1>:
    100c:	08 95       	ret

0000100e <__TIMER0_COMP_vect_routine>:
    100e:	78 c8       	rjmp	.-3856   	; 0x100 <TIMER0_COMP_vect_routine1>

00001010 <__vector_15>:
    1010:	1f 92       	push	r1
    1012:	0f 92       	push	r0
    1014:	0f b6       	in	r0, 0x3f	; 63
    1016:	0f 92       	push	r0
    1018:	11 24       	eor	r1, r1
    101a:	0b b6       	in	r0, 0x3b	; 59
    101c:	0f 92       	push	r0
    101e:	2f 93       	push	r18
    1020:	3f 93       	push	r19
    1022:	4f 93       	push	r20
    1024:	5f 93       	push	r21
    1026:	6f 93       	push	r22
    1028:	7f 93       	push	r23
    102a:	8f 93       	push	r24
    102c:	9f 93       	push	r25
    102e:	af 93       	push	r26
    1030:	bf 93       	push	r27
    1032:	ef 93       	push	r30
    1034:	ff 93       	push	r31
    1036:	eb df       	rcall	.-42     	; 0x100e <__TIMER0_COMP_vect_routine>
    1038:	ff 91       	pop	r31
    103a:	ef 91       	pop	r30
    103c:	bf 91       	pop	r27
    103e:	af 91       	pop	r26
    1040:	9f 91       	pop	r25
    1042:	8f 91       	pop	r24
    1044:	7f 91       	pop	r23
    1046:	6f 91       	pop	r22
    1048:	5f 91       	pop	r21
    104a:	4f 91       	pop	r20
    104c:	3f 91       	pop	r19
    104e:	2f 91       	pop	r18
    1050:	0f 90       	pop	r0
    1052:	0b be       	out	0x3b, r0	; 59
    1054:	0f 90       	pop	r0
    1056:	0f be       	out	0x3f, r0	; 63
    1058:	0f 90       	pop	r0
    105a:	1f 90       	pop	r1
    105c:	18 95       	reti

0000105e <__TIMER0_OVF_vect_routine1>:
    105e:	08 95       	ret

00001060 <__TIMER0_OVF_vect_routine>:
    1060:	46 c8       	rjmp	.-3956   	; 0xee <TIMER0_OVF_vect_routine1>

00001062 <__vector_16>:
    1062:	1f 92       	push	r1
    1064:	0f 92       	push	r0
    1066:	0f b6       	in	r0, 0x3f	; 63
    1068:	0f 92       	push	r0
    106a:	11 24       	eor	r1, r1
    106c:	0b b6       	in	r0, 0x3b	; 59
    106e:	0f 92       	push	r0
    1070:	2f 93       	push	r18
    1072:	3f 93       	push	r19
    1074:	4f 93       	push	r20
    1076:	5f 93       	push	r21
    1078:	6f 93       	push	r22
    107a:	7f 93       	push	r23
    107c:	8f 93       	push	r24
    107e:	9f 93       	push	r25
    1080:	af 93       	push	r26
    1082:	bf 93       	push	r27
    1084:	ef 93       	push	r30
    1086:	ff 93       	push	r31
    1088:	eb df       	rcall	.-42     	; 0x1060 <__TIMER0_OVF_vect_routine>
    108a:	ff 91       	pop	r31
    108c:	ef 91       	pop	r30
    108e:	bf 91       	pop	r27
    1090:	af 91       	pop	r26
    1092:	9f 91       	pop	r25
    1094:	8f 91       	pop	r24
    1096:	7f 91       	pop	r23
    1098:	6f 91       	pop	r22
    109a:	5f 91       	pop	r21
    109c:	4f 91       	pop	r20
    109e:	3f 91       	pop	r19
    10a0:	2f 91       	pop	r18
    10a2:	0f 90       	pop	r0
    10a4:	0b be       	out	0x3b, r0	; 59
    10a6:	0f 90       	pop	r0
    10a8:	0f be       	out	0x3f, r0	; 63
    10aa:	0f 90       	pop	r0
    10ac:	1f 90       	pop	r1
    10ae:	18 95       	reti

000010b0 <__SPI_STC_vect_routine1>:
    10b0:	08 95       	ret

000010b2 <__SPI_STC_vect_routine>:
    10b2:	ba c8       	rjmp	.-3724   	; 0x228 <SPI_STC_vect_routine1>

000010b4 <__vector_17>:
    10b4:	1f 92       	push	r1
    10b6:	0f 92       	push	r0
    10b8:	0f b6       	in	r0, 0x3f	; 63
    10ba:	0f 92       	push	r0
    10bc:	11 24       	eor	r1, r1
    10be:	0b b6       	in	r0, 0x3b	; 59
    10c0:	0f 92       	push	r0
    10c2:	2f 93       	push	r18
    10c4:	3f 93       	push	r19
    10c6:	4f 93       	push	r20
    10c8:	5f 93       	push	r21
    10ca:	6f 93       	push	r22
    10cc:	7f 93       	push	r23
    10ce:	8f 93       	push	r24
    10d0:	9f 93       	push	r25
    10d2:	af 93       	push	r26
    10d4:	bf 93       	push	r27
    10d6:	ef 93       	push	r30
    10d8:	ff 93       	push	r31
    10da:	eb df       	rcall	.-42     	; 0x10b2 <__SPI_STC_vect_routine>
    10dc:	ff 91       	pop	r31
    10de:	ef 91       	pop	r30
    10e0:	bf 91       	pop	r27
    10e2:	af 91       	pop	r26
    10e4:	9f 91       	pop	r25
    10e6:	8f 91       	pop	r24
    10e8:	7f 91       	pop	r23
    10ea:	6f 91       	pop	r22
    10ec:	5f 91       	pop	r21
    10ee:	4f 91       	pop	r20
    10f0:	3f 91       	pop	r19
    10f2:	2f 91       	pop	r18
    10f4:	0f 90       	pop	r0
    10f6:	0b be       	out	0x3b, r0	; 59
    10f8:	0f 90       	pop	r0
    10fa:	0f be       	out	0x3f, r0	; 63
    10fc:	0f 90       	pop	r0
    10fe:	1f 90       	pop	r1
    1100:	18 95       	reti

00001102 <__USART0_RX_vect_routine1>:
    1102:	08 95       	ret

00001104 <__USART0_RX_vect_routine>:
    1104:	b1 c8       	rjmp	.-3742   	; 0x268 <USART0_RX_vect_routine1>

00001106 <__vector_18>:
    1106:	1f 92       	push	r1
    1108:	0f 92       	push	r0
    110a:	0f b6       	in	r0, 0x3f	; 63
    110c:	0f 92       	push	r0
    110e:	11 24       	eor	r1, r1
    1110:	0b b6       	in	r0, 0x3b	; 59
    1112:	0f 92       	push	r0
    1114:	2f 93       	push	r18
    1116:	3f 93       	push	r19
    1118:	4f 93       	push	r20
    111a:	5f 93       	push	r21
    111c:	6f 93       	push	r22
    111e:	7f 93       	push	r23
    1120:	8f 93       	push	r24
    1122:	9f 93       	push	r25
    1124:	af 93       	push	r26
    1126:	bf 93       	push	r27
    1128:	ef 93       	push	r30
    112a:	ff 93       	push	r31
    112c:	eb df       	rcall	.-42     	; 0x1104 <__USART0_RX_vect_routine>
    112e:	ff 91       	pop	r31
    1130:	ef 91       	pop	r30
    1132:	bf 91       	pop	r27
    1134:	af 91       	pop	r26
    1136:	9f 91       	pop	r25
    1138:	8f 91       	pop	r24
    113a:	7f 91       	pop	r23
    113c:	6f 91       	pop	r22
    113e:	5f 91       	pop	r21
    1140:	4f 91       	pop	r20
    1142:	3f 91       	pop	r19
    1144:	2f 91       	pop	r18
    1146:	0f 90       	pop	r0
    1148:	0b be       	out	0x3b, r0	; 59
    114a:	0f 90       	pop	r0
    114c:	0f be       	out	0x3f, r0	; 63
    114e:	0f 90       	pop	r0
    1150:	1f 90       	pop	r1
    1152:	18 95       	reti

00001154 <__USART0_UDRE_vect_routine1>:
    1154:	08 95       	ret

00001156 <__USART0_UDRE_vect_routine>:
    1156:	fe cf       	rjmp	.-4      	; 0x1154 <__USART0_UDRE_vect_routine1>

00001158 <__vector_19>:
    1158:	1f 92       	push	r1
    115a:	0f 92       	push	r0
    115c:	0f b6       	in	r0, 0x3f	; 63
    115e:	0f 92       	push	r0
    1160:	11 24       	eor	r1, r1
    1162:	0b b6       	in	r0, 0x3b	; 59
    1164:	0f 92       	push	r0
    1166:	2f 93       	push	r18
    1168:	3f 93       	push	r19
    116a:	4f 93       	push	r20
    116c:	5f 93       	push	r21
    116e:	6f 93       	push	r22
    1170:	7f 93       	push	r23
    1172:	8f 93       	push	r24
    1174:	9f 93       	push	r25
    1176:	af 93       	push	r26
    1178:	bf 93       	push	r27
    117a:	ef 93       	push	r30
    117c:	ff 93       	push	r31
    117e:	eb df       	rcall	.-42     	; 0x1156 <__USART0_UDRE_vect_routine>
    1180:	ff 91       	pop	r31
    1182:	ef 91       	pop	r30
    1184:	bf 91       	pop	r27
    1186:	af 91       	pop	r26
    1188:	9f 91       	pop	r25
    118a:	8f 91       	pop	r24
    118c:	7f 91       	pop	r23
    118e:	6f 91       	pop	r22
    1190:	5f 91       	pop	r21
    1192:	4f 91       	pop	r20
    1194:	3f 91       	pop	r19
    1196:	2f 91       	pop	r18
    1198:	0f 90       	pop	r0
    119a:	0b be       	out	0x3b, r0	; 59
    119c:	0f 90       	pop	r0
    119e:	0f be       	out	0x3f, r0	; 63
    11a0:	0f 90       	pop	r0
    11a2:	1f 90       	pop	r1
    11a4:	18 95       	reti

000011a6 <__USART0_TX_vect_routine1>:
    11a6:	08 95       	ret

000011a8 <__USART0_TX_vect_routine>:
    11a8:	4f c8       	rjmp	.-3938   	; 0x248 <USART0_TX_vect_routine1>

000011aa <__vector_20>:
    11aa:	1f 92       	push	r1
    11ac:	0f 92       	push	r0
    11ae:	0f b6       	in	r0, 0x3f	; 63
    11b0:	0f 92       	push	r0
    11b2:	11 24       	eor	r1, r1
    11b4:	0b b6       	in	r0, 0x3b	; 59
    11b6:	0f 92       	push	r0
    11b8:	2f 93       	push	r18
    11ba:	3f 93       	push	r19
    11bc:	4f 93       	push	r20
    11be:	5f 93       	push	r21
    11c0:	6f 93       	push	r22
    11c2:	7f 93       	push	r23
    11c4:	8f 93       	push	r24
    11c6:	9f 93       	push	r25
    11c8:	af 93       	push	r26
    11ca:	bf 93       	push	r27
    11cc:	ef 93       	push	r30
    11ce:	ff 93       	push	r31
    11d0:	eb df       	rcall	.-42     	; 0x11a8 <__USART0_TX_vect_routine>
    11d2:	ff 91       	pop	r31
    11d4:	ef 91       	pop	r30
    11d6:	bf 91       	pop	r27
    11d8:	af 91       	pop	r26
    11da:	9f 91       	pop	r25
    11dc:	8f 91       	pop	r24
    11de:	7f 91       	pop	r23
    11e0:	6f 91       	pop	r22
    11e2:	5f 91       	pop	r21
    11e4:	4f 91       	pop	r20
    11e6:	3f 91       	pop	r19
    11e8:	2f 91       	pop	r18
    11ea:	0f 90       	pop	r0
    11ec:	0b be       	out	0x3b, r0	; 59
    11ee:	0f 90       	pop	r0
    11f0:	0f be       	out	0x3f, r0	; 63
    11f2:	0f 90       	pop	r0
    11f4:	1f 90       	pop	r1
    11f6:	18 95       	reti

000011f8 <__ADC_vect_routine1>:
    11f8:	08 95       	ret

000011fa <__ADC_vect_routine>:
    11fa:	66 c8       	rjmp	.-3892   	; 0x2c8 <ADC_vect_routine1>

000011fc <__vector_21>:
    11fc:	1f 92       	push	r1
    11fe:	0f 92       	push	r0
    1200:	0f b6       	in	r0, 0x3f	; 63
    1202:	0f 92       	push	r0
    1204:	11 24       	eor	r1, r1
    1206:	0b b6       	in	r0, 0x3b	; 59
    1208:	0f 92       	push	r0
    120a:	2f 93       	push	r18
    120c:	3f 93       	push	r19
    120e:	4f 93       	push	r20
    1210:	5f 93       	push	r21
    1212:	6f 93       	push	r22
    1214:	7f 93       	push	r23
    1216:	8f 93       	push	r24
    1218:	9f 93       	push	r25
    121a:	af 93       	push	r26
    121c:	bf 93       	push	r27
    121e:	ef 93       	push	r30
    1220:	ff 93       	push	r31
    1222:	eb df       	rcall	.-42     	; 0x11fa <__ADC_vect_routine>
    1224:	ff 91       	pop	r31
    1226:	ef 91       	pop	r30
    1228:	bf 91       	pop	r27
    122a:	af 91       	pop	r26
    122c:	9f 91       	pop	r25
    122e:	8f 91       	pop	r24
    1230:	7f 91       	pop	r23
    1232:	6f 91       	pop	r22
    1234:	5f 91       	pop	r21
    1236:	4f 91       	pop	r20
    1238:	3f 91       	pop	r19
    123a:	2f 91       	pop	r18
    123c:	0f 90       	pop	r0
    123e:	0b be       	out	0x3b, r0	; 59
    1240:	0f 90       	pop	r0
    1242:	0f be       	out	0x3f, r0	; 63
    1244:	0f 90       	pop	r0
    1246:	1f 90       	pop	r1
    1248:	18 95       	reti

0000124a <__EE_READY_vect_routine1>:
    124a:	08 95       	ret

0000124c <__EE_READY_vect_routine>:
    124c:	fe cf       	rjmp	.-4      	; 0x124a <__EE_READY_vect_routine1>

0000124e <__vector_22>:
    124e:	1f 92       	push	r1
    1250:	0f 92       	push	r0
    1252:	0f b6       	in	r0, 0x3f	; 63
    1254:	0f 92       	push	r0
    1256:	11 24       	eor	r1, r1
    1258:	0b b6       	in	r0, 0x3b	; 59
    125a:	0f 92       	push	r0
    125c:	2f 93       	push	r18
    125e:	3f 93       	push	r19
    1260:	4f 93       	push	r20
    1262:	5f 93       	push	r21
    1264:	6f 93       	push	r22
    1266:	7f 93       	push	r23
    1268:	8f 93       	push	r24
    126a:	9f 93       	push	r25
    126c:	af 93       	push	r26
    126e:	bf 93       	push	r27
    1270:	ef 93       	push	r30
    1272:	ff 93       	push	r31
    1274:	eb df       	rcall	.-42     	; 0x124c <__EE_READY_vect_routine>
    1276:	ff 91       	pop	r31
    1278:	ef 91       	pop	r30
    127a:	bf 91       	pop	r27
    127c:	af 91       	pop	r26
    127e:	9f 91       	pop	r25
    1280:	8f 91       	pop	r24
    1282:	7f 91       	pop	r23
    1284:	6f 91       	pop	r22
    1286:	5f 91       	pop	r21
    1288:	4f 91       	pop	r20
    128a:	3f 91       	pop	r19
    128c:	2f 91       	pop	r18
    128e:	0f 90       	pop	r0
    1290:	0b be       	out	0x3b, r0	; 59
    1292:	0f 90       	pop	r0
    1294:	0f be       	out	0x3f, r0	; 63
    1296:	0f 90       	pop	r0
    1298:	1f 90       	pop	r1
    129a:	18 95       	reti

0000129c <__ANALOG_COMP_vect_routine1>:
    129c:	08 95       	ret

0000129e <__ANALOG_COMP_vect_routine>:
    129e:	fe cf       	rjmp	.-4      	; 0x129c <__ANALOG_COMP_vect_routine1>

000012a0 <__vector_23>:
    12a0:	1f 92       	push	r1
    12a2:	0f 92       	push	r0
    12a4:	0f b6       	in	r0, 0x3f	; 63
    12a6:	0f 92       	push	r0
    12a8:	11 24       	eor	r1, r1
    12aa:	0b b6       	in	r0, 0x3b	; 59
    12ac:	0f 92       	push	r0
    12ae:	2f 93       	push	r18
    12b0:	3f 93       	push	r19
    12b2:	4f 93       	push	r20
    12b4:	5f 93       	push	r21
    12b6:	6f 93       	push	r22
    12b8:	7f 93       	push	r23
    12ba:	8f 93       	push	r24
    12bc:	9f 93       	push	r25
    12be:	af 93       	push	r26
    12c0:	bf 93       	push	r27
    12c2:	ef 93       	push	r30
    12c4:	ff 93       	push	r31
    12c6:	eb df       	rcall	.-42     	; 0x129e <__ANALOG_COMP_vect_routine>
    12c8:	ff 91       	pop	r31
    12ca:	ef 91       	pop	r30
    12cc:	bf 91       	pop	r27
    12ce:	af 91       	pop	r26
    12d0:	9f 91       	pop	r25
    12d2:	8f 91       	pop	r24
    12d4:	7f 91       	pop	r23
    12d6:	6f 91       	pop	r22
    12d8:	5f 91       	pop	r21
    12da:	4f 91       	pop	r20
    12dc:	3f 91       	pop	r19
    12de:	2f 91       	pop	r18
    12e0:	0f 90       	pop	r0
    12e2:	0b be       	out	0x3b, r0	; 59
    12e4:	0f 90       	pop	r0
    12e6:	0f be       	out	0x3f, r0	; 63
    12e8:	0f 90       	pop	r0
    12ea:	1f 90       	pop	r1
    12ec:	18 95       	reti

000012ee <__TIMER1_COMPC_vect_routine1>:
    12ee:	08 95       	ret

000012f0 <__TIMER1_COMPC_vect_routine>:
    12f0:	0c 94 9c 00 	jmp	0x138	; 0x138 <TIMER1_COMPC_vect_routine1>

000012f4 <__vector_24>:
    12f4:	1f 92       	push	r1
    12f6:	0f 92       	push	r0
    12f8:	0f b6       	in	r0, 0x3f	; 63
    12fa:	0f 92       	push	r0
    12fc:	11 24       	eor	r1, r1
    12fe:	0b b6       	in	r0, 0x3b	; 59
    1300:	0f 92       	push	r0
    1302:	2f 93       	push	r18
    1304:	3f 93       	push	r19
    1306:	4f 93       	push	r20
    1308:	5f 93       	push	r21
    130a:	6f 93       	push	r22
    130c:	7f 93       	push	r23
    130e:	8f 93       	push	r24
    1310:	9f 93       	push	r25
    1312:	af 93       	push	r26
    1314:	bf 93       	push	r27
    1316:	ef 93       	push	r30
    1318:	ff 93       	push	r31
    131a:	ea df       	rcall	.-44     	; 0x12f0 <__TIMER1_COMPC_vect_routine>
    131c:	ff 91       	pop	r31
    131e:	ef 91       	pop	r30
    1320:	bf 91       	pop	r27
    1322:	af 91       	pop	r26
    1324:	9f 91       	pop	r25
    1326:	8f 91       	pop	r24
    1328:	7f 91       	pop	r23
    132a:	6f 91       	pop	r22
    132c:	5f 91       	pop	r21
    132e:	4f 91       	pop	r20
    1330:	3f 91       	pop	r19
    1332:	2f 91       	pop	r18
    1334:	0f 90       	pop	r0
    1336:	0b be       	out	0x3b, r0	; 59
    1338:	0f 90       	pop	r0
    133a:	0f be       	out	0x3f, r0	; 63
    133c:	0f 90       	pop	r0
    133e:	1f 90       	pop	r1
    1340:	18 95       	reti

00001342 <__TIMER3_CAPT_vect_routine1>:
    1342:	08 95       	ret

00001344 <__TIMER3_CAPT_vect_routine>:
    1344:	fe cf       	rjmp	.-4      	; 0x1342 <__TIMER3_CAPT_vect_routine1>

00001346 <__vector_25>:
    1346:	1f 92       	push	r1
    1348:	0f 92       	push	r0
    134a:	0f b6       	in	r0, 0x3f	; 63
    134c:	0f 92       	push	r0
    134e:	11 24       	eor	r1, r1
    1350:	0b b6       	in	r0, 0x3b	; 59
    1352:	0f 92       	push	r0
    1354:	2f 93       	push	r18
    1356:	3f 93       	push	r19
    1358:	4f 93       	push	r20
    135a:	5f 93       	push	r21
    135c:	6f 93       	push	r22
    135e:	7f 93       	push	r23
    1360:	8f 93       	push	r24
    1362:	9f 93       	push	r25
    1364:	af 93       	push	r26
    1366:	bf 93       	push	r27
    1368:	ef 93       	push	r30
    136a:	ff 93       	push	r31
    136c:	eb df       	rcall	.-42     	; 0x1344 <__TIMER3_CAPT_vect_routine>
    136e:	ff 91       	pop	r31
    1370:	ef 91       	pop	r30
    1372:	bf 91       	pop	r27
    1374:	af 91       	pop	r26
    1376:	9f 91       	pop	r25
    1378:	8f 91       	pop	r24
    137a:	7f 91       	pop	r23
    137c:	6f 91       	pop	r22
    137e:	5f 91       	pop	r21
    1380:	4f 91       	pop	r20
    1382:	3f 91       	pop	r19
    1384:	2f 91       	pop	r18
    1386:	0f 90       	pop	r0
    1388:	0b be       	out	0x3b, r0	; 59
    138a:	0f 90       	pop	r0
    138c:	0f be       	out	0x3f, r0	; 63
    138e:	0f 90       	pop	r0
    1390:	1f 90       	pop	r1
    1392:	18 95       	reti

00001394 <__TIMER3_COMPA_vect_routine1>:
    1394:	08 95       	ret

00001396 <__TIMER3_COMPA_vect_routine>:
    1396:	0c 94 b8 00 	jmp	0x170	; 0x170 <TIMER3_COMPA_vect_routine1>

0000139a <__vector_26>:
    139a:	1f 92       	push	r1
    139c:	0f 92       	push	r0
    139e:	0f b6       	in	r0, 0x3f	; 63
    13a0:	0f 92       	push	r0
    13a2:	11 24       	eor	r1, r1
    13a4:	0b b6       	in	r0, 0x3b	; 59
    13a6:	0f 92       	push	r0
    13a8:	2f 93       	push	r18
    13aa:	3f 93       	push	r19
    13ac:	4f 93       	push	r20
    13ae:	5f 93       	push	r21
    13b0:	6f 93       	push	r22
    13b2:	7f 93       	push	r23
    13b4:	8f 93       	push	r24
    13b6:	9f 93       	push	r25
    13b8:	af 93       	push	r26
    13ba:	bf 93       	push	r27
    13bc:	ef 93       	push	r30
    13be:	ff 93       	push	r31
    13c0:	6e d5       	rcall	.+2780   	; 0x1e9e <TIMER3_COMPA_vect_routine>
    13c2:	ff 91       	pop	r31
    13c4:	ef 91       	pop	r30
    13c6:	bf 91       	pop	r27
    13c8:	af 91       	pop	r26
    13ca:	9f 91       	pop	r25
    13cc:	8f 91       	pop	r24
    13ce:	7f 91       	pop	r23
    13d0:	6f 91       	pop	r22
    13d2:	5f 91       	pop	r21
    13d4:	4f 91       	pop	r20
    13d6:	3f 91       	pop	r19
    13d8:	2f 91       	pop	r18
    13da:	0f 90       	pop	r0
    13dc:	0b be       	out	0x3b, r0	; 59
    13de:	0f 90       	pop	r0
    13e0:	0f be       	out	0x3f, r0	; 63
    13e2:	0f 90       	pop	r0
    13e4:	1f 90       	pop	r1
    13e6:	18 95       	reti

000013e8 <__TIMER3_COMPB_vect_routine1>:
    13e8:	08 95       	ret

000013ea <__TIMER3_COMPB_vect_routine>:
    13ea:	0c 94 c1 00 	jmp	0x182	; 0x182 <TIMER3_COMPB_vect_routine1>

000013ee <__vector_27>:
    13ee:	1f 92       	push	r1
    13f0:	0f 92       	push	r0
    13f2:	0f b6       	in	r0, 0x3f	; 63
    13f4:	0f 92       	push	r0
    13f6:	11 24       	eor	r1, r1
    13f8:	0b b6       	in	r0, 0x3b	; 59
    13fa:	0f 92       	push	r0
    13fc:	2f 93       	push	r18
    13fe:	3f 93       	push	r19
    1400:	4f 93       	push	r20
    1402:	5f 93       	push	r21
    1404:	6f 93       	push	r22
    1406:	7f 93       	push	r23
    1408:	8f 93       	push	r24
    140a:	9f 93       	push	r25
    140c:	af 93       	push	r26
    140e:	bf 93       	push	r27
    1410:	ef 93       	push	r30
    1412:	ff 93       	push	r31
    1414:	ea df       	rcall	.-44     	; 0x13ea <__TIMER3_COMPB_vect_routine>
    1416:	ff 91       	pop	r31
    1418:	ef 91       	pop	r30
    141a:	bf 91       	pop	r27
    141c:	af 91       	pop	r26
    141e:	9f 91       	pop	r25
    1420:	8f 91       	pop	r24
    1422:	7f 91       	pop	r23
    1424:	6f 91       	pop	r22
    1426:	5f 91       	pop	r21
    1428:	4f 91       	pop	r20
    142a:	3f 91       	pop	r19
    142c:	2f 91       	pop	r18
    142e:	0f 90       	pop	r0
    1430:	0b be       	out	0x3b, r0	; 59
    1432:	0f 90       	pop	r0
    1434:	0f be       	out	0x3f, r0	; 63
    1436:	0f 90       	pop	r0
    1438:	1f 90       	pop	r1
    143a:	18 95       	reti

0000143c <__TIMER3_COMPC_vect_routine1>:
    143c:	08 95       	ret

0000143e <__TIMER3_COMPC_vect_routine>:
    143e:	0c 94 c2 00 	jmp	0x184	; 0x184 <TIMER3_COMPC_vect_routine1>

00001442 <__vector_28>:
    1442:	1f 92       	push	r1
    1444:	0f 92       	push	r0
    1446:	0f b6       	in	r0, 0x3f	; 63
    1448:	0f 92       	push	r0
    144a:	11 24       	eor	r1, r1
    144c:	0b b6       	in	r0, 0x3b	; 59
    144e:	0f 92       	push	r0
    1450:	2f 93       	push	r18
    1452:	3f 93       	push	r19
    1454:	4f 93       	push	r20
    1456:	5f 93       	push	r21
    1458:	6f 93       	push	r22
    145a:	7f 93       	push	r23
    145c:	8f 93       	push	r24
    145e:	9f 93       	push	r25
    1460:	af 93       	push	r26
    1462:	bf 93       	push	r27
    1464:	ef 93       	push	r30
    1466:	ff 93       	push	r31
    1468:	ea df       	rcall	.-44     	; 0x143e <__TIMER3_COMPC_vect_routine>
    146a:	ff 91       	pop	r31
    146c:	ef 91       	pop	r30
    146e:	bf 91       	pop	r27
    1470:	af 91       	pop	r26
    1472:	9f 91       	pop	r25
    1474:	8f 91       	pop	r24
    1476:	7f 91       	pop	r23
    1478:	6f 91       	pop	r22
    147a:	5f 91       	pop	r21
    147c:	4f 91       	pop	r20
    147e:	3f 91       	pop	r19
    1480:	2f 91       	pop	r18
    1482:	0f 90       	pop	r0
    1484:	0b be       	out	0x3b, r0	; 59
    1486:	0f 90       	pop	r0
    1488:	0f be       	out	0x3f, r0	; 63
    148a:	0f 90       	pop	r0
    148c:	1f 90       	pop	r1
    148e:	18 95       	reti

00001490 <__TIMER3_OVF_vect_routine1>:
    1490:	08 95       	ret

00001492 <__TIMER3_OVF_vect_routine>:
    1492:	0c 94 af 00 	jmp	0x15e	; 0x15e <TIMER3_OVF_vect_routine1>

00001496 <__vector_29>:
    1496:	1f 92       	push	r1
    1498:	0f 92       	push	r0
    149a:	0f b6       	in	r0, 0x3f	; 63
    149c:	0f 92       	push	r0
    149e:	11 24       	eor	r1, r1
    14a0:	0b b6       	in	r0, 0x3b	; 59
    14a2:	0f 92       	push	r0
    14a4:	2f 93       	push	r18
    14a6:	3f 93       	push	r19
    14a8:	4f 93       	push	r20
    14aa:	5f 93       	push	r21
    14ac:	6f 93       	push	r22
    14ae:	7f 93       	push	r23
    14b0:	8f 93       	push	r24
    14b2:	9f 93       	push	r25
    14b4:	af 93       	push	r26
    14b6:	bf 93       	push	r27
    14b8:	ef 93       	push	r30
    14ba:	ff 93       	push	r31
    14bc:	ea df       	rcall	.-44     	; 0x1492 <__TIMER3_OVF_vect_routine>
    14be:	ff 91       	pop	r31
    14c0:	ef 91       	pop	r30
    14c2:	bf 91       	pop	r27
    14c4:	af 91       	pop	r26
    14c6:	9f 91       	pop	r25
    14c8:	8f 91       	pop	r24
    14ca:	7f 91       	pop	r23
    14cc:	6f 91       	pop	r22
    14ce:	5f 91       	pop	r21
    14d0:	4f 91       	pop	r20
    14d2:	3f 91       	pop	r19
    14d4:	2f 91       	pop	r18
    14d6:	0f 90       	pop	r0
    14d8:	0b be       	out	0x3b, r0	; 59
    14da:	0f 90       	pop	r0
    14dc:	0f be       	out	0x3f, r0	; 63
    14de:	0f 90       	pop	r0
    14e0:	1f 90       	pop	r1
    14e2:	18 95       	reti

000014e4 <__USART1_RX_vect_routine1>:
    14e4:	08 95       	ret

000014e6 <__USART1_RX_vect_routine>:
    14e6:	0c 94 54 01 	jmp	0x2a8	; 0x2a8 <USART1_RX_vect_routine1>

000014ea <__vector_30>:
    14ea:	1f 92       	push	r1
    14ec:	0f 92       	push	r0
    14ee:	0f b6       	in	r0, 0x3f	; 63
    14f0:	0f 92       	push	r0
    14f2:	11 24       	eor	r1, r1
    14f4:	0b b6       	in	r0, 0x3b	; 59
    14f6:	0f 92       	push	r0
    14f8:	2f 93       	push	r18
    14fa:	3f 93       	push	r19
    14fc:	4f 93       	push	r20
    14fe:	5f 93       	push	r21
    1500:	6f 93       	push	r22
    1502:	7f 93       	push	r23
    1504:	8f 93       	push	r24
    1506:	9f 93       	push	r25
    1508:	af 93       	push	r26
    150a:	bf 93       	push	r27
    150c:	ef 93       	push	r30
    150e:	ff 93       	push	r31
    1510:	ea df       	rcall	.-44     	; 0x14e6 <__USART1_RX_vect_routine>
    1512:	ff 91       	pop	r31
    1514:	ef 91       	pop	r30
    1516:	bf 91       	pop	r27
    1518:	af 91       	pop	r26
    151a:	9f 91       	pop	r25
    151c:	8f 91       	pop	r24
    151e:	7f 91       	pop	r23
    1520:	6f 91       	pop	r22
    1522:	5f 91       	pop	r21
    1524:	4f 91       	pop	r20
    1526:	3f 91       	pop	r19
    1528:	2f 91       	pop	r18
    152a:	0f 90       	pop	r0
    152c:	0b be       	out	0x3b, r0	; 59
    152e:	0f 90       	pop	r0
    1530:	0f be       	out	0x3f, r0	; 63
    1532:	0f 90       	pop	r0
    1534:	1f 90       	pop	r1
    1536:	18 95       	reti

00001538 <__USART1_UDRE_vect_routine1>:
    1538:	08 95       	ret

0000153a <__USART1_UDRE_vect_routine>:
    153a:	fe cf       	rjmp	.-4      	; 0x1538 <__USART1_UDRE_vect_routine1>

0000153c <__vector_31>:
    153c:	1f 92       	push	r1
    153e:	0f 92       	push	r0
    1540:	0f b6       	in	r0, 0x3f	; 63
    1542:	0f 92       	push	r0
    1544:	11 24       	eor	r1, r1
    1546:	0b b6       	in	r0, 0x3b	; 59
    1548:	0f 92       	push	r0
    154a:	2f 93       	push	r18
    154c:	3f 93       	push	r19
    154e:	4f 93       	push	r20
    1550:	5f 93       	push	r21
    1552:	6f 93       	push	r22
    1554:	7f 93       	push	r23
    1556:	8f 93       	push	r24
    1558:	9f 93       	push	r25
    155a:	af 93       	push	r26
    155c:	bf 93       	push	r27
    155e:	ef 93       	push	r30
    1560:	ff 93       	push	r31
    1562:	eb df       	rcall	.-42     	; 0x153a <__USART1_UDRE_vect_routine>
    1564:	ff 91       	pop	r31
    1566:	ef 91       	pop	r30
    1568:	bf 91       	pop	r27
    156a:	af 91       	pop	r26
    156c:	9f 91       	pop	r25
    156e:	8f 91       	pop	r24
    1570:	7f 91       	pop	r23
    1572:	6f 91       	pop	r22
    1574:	5f 91       	pop	r21
    1576:	4f 91       	pop	r20
    1578:	3f 91       	pop	r19
    157a:	2f 91       	pop	r18
    157c:	0f 90       	pop	r0
    157e:	0b be       	out	0x3b, r0	; 59
    1580:	0f 90       	pop	r0
    1582:	0f be       	out	0x3f, r0	; 63
    1584:	0f 90       	pop	r0
    1586:	1f 90       	pop	r1
    1588:	18 95       	reti

0000158a <__USART1_TX_vect_routine1>:
    158a:	08 95       	ret

0000158c <__USART1_TX_vect_routine>:
    158c:	0c 94 44 01 	jmp	0x288	; 0x288 <USART1_TX_vect_routine1>

00001590 <__vector_32>:
    1590:	1f 92       	push	r1
    1592:	0f 92       	push	r0
    1594:	0f b6       	in	r0, 0x3f	; 63
    1596:	0f 92       	push	r0
    1598:	11 24       	eor	r1, r1
    159a:	0b b6       	in	r0, 0x3b	; 59
    159c:	0f 92       	push	r0
    159e:	2f 93       	push	r18
    15a0:	3f 93       	push	r19
    15a2:	4f 93       	push	r20
    15a4:	5f 93       	push	r21
    15a6:	6f 93       	push	r22
    15a8:	7f 93       	push	r23
    15aa:	8f 93       	push	r24
    15ac:	9f 93       	push	r25
    15ae:	af 93       	push	r26
    15b0:	bf 93       	push	r27
    15b2:	ef 93       	push	r30
    15b4:	ff 93       	push	r31
    15b6:	ea df       	rcall	.-44     	; 0x158c <__USART1_TX_vect_routine>
    15b8:	ff 91       	pop	r31
    15ba:	ef 91       	pop	r30
    15bc:	bf 91       	pop	r27
    15be:	af 91       	pop	r26
    15c0:	9f 91       	pop	r25
    15c2:	8f 91       	pop	r24
    15c4:	7f 91       	pop	r23
    15c6:	6f 91       	pop	r22
    15c8:	5f 91       	pop	r21
    15ca:	4f 91       	pop	r20
    15cc:	3f 91       	pop	r19
    15ce:	2f 91       	pop	r18
    15d0:	0f 90       	pop	r0
    15d2:	0b be       	out	0x3b, r0	; 59
    15d4:	0f 90       	pop	r0
    15d6:	0f be       	out	0x3f, r0	; 63
    15d8:	0f 90       	pop	r0
    15da:	1f 90       	pop	r1
    15dc:	18 95       	reti

000015de <__TWI_vect_routine1>:
    15de:	08 95       	ret

000015e0 <__TWI_vect_routine>:
    15e0:	0c 94 0b 01 	jmp	0x216	; 0x216 <TWI_vect_routine1>

000015e4 <__vector_33>:
    15e4:	1f 92       	push	r1
    15e6:	0f 92       	push	r0
    15e8:	0f b6       	in	r0, 0x3f	; 63
    15ea:	0f 92       	push	r0
    15ec:	11 24       	eor	r1, r1
    15ee:	0b b6       	in	r0, 0x3b	; 59
    15f0:	0f 92       	push	r0
    15f2:	2f 93       	push	r18
    15f4:	3f 93       	push	r19
    15f6:	4f 93       	push	r20
    15f8:	5f 93       	push	r21
    15fa:	6f 93       	push	r22
    15fc:	7f 93       	push	r23
    15fe:	8f 93       	push	r24
    1600:	9f 93       	push	r25
    1602:	af 93       	push	r26
    1604:	bf 93       	push	r27
    1606:	ef 93       	push	r30
    1608:	ff 93       	push	r31
    160a:	ea df       	rcall	.-44     	; 0x15e0 <__TWI_vect_routine>
    160c:	ff 91       	pop	r31
    160e:	ef 91       	pop	r30
    1610:	bf 91       	pop	r27
    1612:	af 91       	pop	r26
    1614:	9f 91       	pop	r25
    1616:	8f 91       	pop	r24
    1618:	7f 91       	pop	r23
    161a:	6f 91       	pop	r22
    161c:	5f 91       	pop	r21
    161e:	4f 91       	pop	r20
    1620:	3f 91       	pop	r19
    1622:	2f 91       	pop	r18
    1624:	0f 90       	pop	r0
    1626:	0b be       	out	0x3b, r0	; 59
    1628:	0f 90       	pop	r0
    162a:	0f be       	out	0x3f, r0	; 63
    162c:	0f 90       	pop	r0
    162e:	1f 90       	pop	r1
    1630:	18 95       	reti

00001632 <__SPM_READY_vect_routine1>:
    1632:	08 95       	ret

00001634 <__SPM_READY_vect_routine>:
    1634:	fe cf       	rjmp	.-4      	; 0x1632 <__SPM_READY_vect_routine1>

00001636 <__vector_34>:
    1636:	1f 92       	push	r1
    1638:	0f 92       	push	r0
    163a:	0f b6       	in	r0, 0x3f	; 63
    163c:	0f 92       	push	r0
    163e:	11 24       	eor	r1, r1
    1640:	0b b6       	in	r0, 0x3b	; 59
    1642:	0f 92       	push	r0
    1644:	2f 93       	push	r18
    1646:	3f 93       	push	r19
    1648:	4f 93       	push	r20
    164a:	5f 93       	push	r21
    164c:	6f 93       	push	r22
    164e:	7f 93       	push	r23
    1650:	8f 93       	push	r24
    1652:	9f 93       	push	r25
    1654:	af 93       	push	r26
    1656:	bf 93       	push	r27
    1658:	ef 93       	push	r30
    165a:	ff 93       	push	r31
    165c:	eb df       	rcall	.-42     	; 0x1634 <__SPM_READY_vect_routine>
    165e:	ff 91       	pop	r31
    1660:	ef 91       	pop	r30
    1662:	bf 91       	pop	r27
    1664:	af 91       	pop	r26
    1666:	9f 91       	pop	r25
    1668:	8f 91       	pop	r24
    166a:	7f 91       	pop	r23
    166c:	6f 91       	pop	r22
    166e:	5f 91       	pop	r21
    1670:	4f 91       	pop	r20
    1672:	3f 91       	pop	r19
    1674:	2f 91       	pop	r18
    1676:	0f 90       	pop	r0
    1678:	0b be       	out	0x3b, r0	; 59
    167a:	0f 90       	pop	r0
    167c:	0f be       	out	0x3f, r0	; 63
    167e:	0f 90       	pop	r0
    1680:	1f 90       	pop	r1
    1682:	18 95       	reti

00001684 <EEPROM_set>:
    1684:	28 2f       	mov	r18, r24
    1686:	79 2f       	mov	r23, r25
    1688:	ca 01       	movw	r24, r20
    168a:	46 2f       	mov	r20, r22
    168c:	50 e0       	ldi	r21, 0x00	; 0
    168e:	62 2f       	mov	r22, r18
    1690:	0c 94 15 16 	jmp	0x2c2a	; 0x2c2a <eeprom_write_block>

00001694 <EEPROM_get>:
    1694:	28 2f       	mov	r18, r24
    1696:	79 2f       	mov	r23, r25
    1698:	ca 01       	movw	r24, r20
    169a:	46 2f       	mov	r20, r22
    169c:	50 e0       	ldi	r21, 0x00	; 0
    169e:	62 2f       	mov	r22, r18
    16a0:	0c 94 05 16 	jmp	0x2c0a	; 0x2c0a <eeprom_read_block>

000016a4 <HWInt_step>:
    16a4:	0f 93       	push	r16
    16a6:	1f 93       	push	r17
    16a8:	cf 93       	push	r28
    16aa:	df 93       	push	r29
    16ac:	ec 01       	movw	r28, r24
    16ae:	10 e0       	ldi	r17, 0x00	; 0
    16b0:	05 e0       	ldi	r16, 0x05	; 5
    16b2:	89 2b       	or	r24, r25
    16b4:	b9 f4       	brne	.+46     	; 0x16e4 <HWInt_step+0x40>
    16b6:	df 91       	pop	r29
    16b8:	cf 91       	pop	r28
    16ba:	1f 91       	pop	r17
    16bc:	0f 91       	pop	r16
    16be:	08 95       	ret
    16c0:	aa 81       	ldd	r26, Y+2	; 0x02
    16c2:	bb 81       	ldd	r27, Y+3	; 0x03
    16c4:	10 9f       	mul	r17, r16
    16c6:	a0 0d       	add	r26, r0
    16c8:	b1 1d       	adc	r27, r1
    16ca:	11 24       	eor	r1, r1
    16cc:	8c 91       	ld	r24, X
    16ce:	88 23       	and	r24, r24
    16d0:	41 f0       	breq	.+16     	; 0x16e2 <HWInt_step+0x3e>
    16d2:	11 96       	adiw	r26, 0x01	; 1
    16d4:	ed 91       	ld	r30, X+
    16d6:	fc 91       	ld	r31, X
    16d8:	12 97       	sbiw	r26, 0x02	; 2
    16da:	13 96       	adiw	r26, 0x03	; 3
    16dc:	8d 91       	ld	r24, X+
    16de:	9c 91       	ld	r25, X
    16e0:	09 95       	icall
    16e2:	1f 5f       	subi	r17, 0xFF	; 255
    16e4:	89 81       	ldd	r24, Y+1	; 0x01
    16e6:	18 17       	cp	r17, r24
    16e8:	58 f3       	brcs	.-42     	; 0x16c0 <HWInt_step+0x1c>
    16ea:	e5 cf       	rjmp	.-54     	; 0x16b6 <HWInt_step+0x12>

000016ec <HWInt_reg>:
    16ec:	cf 93       	push	r28
    16ee:	df 93       	push	r29
    16f0:	fc 01       	movw	r30, r24
    16f2:	81 81       	ldd	r24, Z+1	; 0x01
    16f4:	90 81       	ld	r25, Z
    16f6:	89 17       	cp	r24, r25
    16f8:	c0 f4       	brcc	.+48     	; 0x172a <HWInt_reg+0x3e>
    16fa:	30 97       	sbiw	r30, 0x00	; 0
    16fc:	b1 f0       	breq	.+44     	; 0x172a <HWInt_reg+0x3e>
    16fe:	a2 81       	ldd	r26, Z+2	; 0x02
    1700:	b3 81       	ldd	r27, Z+3	; 0x03
    1702:	95 e0       	ldi	r25, 0x05	; 5
    1704:	89 9f       	mul	r24, r25
    1706:	a0 0d       	add	r26, r0
    1708:	b1 1d       	adc	r27, r1
    170a:	11 24       	eor	r1, r1
    170c:	1c 92       	st	X, r1
    170e:	12 96       	adiw	r26, 0x02	; 2
    1710:	7c 93       	st	X, r23
    1712:	6e 93       	st	-X, r22
    1714:	11 97       	sbiw	r26, 0x01	; 1
    1716:	14 96       	adiw	r26, 0x04	; 4
    1718:	5c 93       	st	X, r21
    171a:	4e 93       	st	-X, r20
    171c:	13 97       	sbiw	r26, 0x03	; 3
    171e:	91 e0       	ldi	r25, 0x01	; 1
    1720:	98 0f       	add	r25, r24
    1722:	91 83       	std	Z+1, r25	; 0x01
    1724:	df 91       	pop	r29
    1726:	cf 91       	pop	r28
    1728:	08 95       	ret
    172a:	8f ef       	ldi	r24, 0xFF	; 255
    172c:	fb cf       	rjmp	.-10     	; 0x1724 <HWInt_reg+0x38>

0000172e <HWInt_en>:
    172e:	fc 01       	movw	r30, r24
    1730:	89 2b       	or	r24, r25
    1732:	71 f0       	breq	.+28     	; 0x1750 <HWInt_en+0x22>
    1734:	81 81       	ldd	r24, Z+1	; 0x01
    1736:	68 17       	cp	r22, r24
    1738:	48 f4       	brcc	.+18     	; 0x174c <HWInt_en+0x1e>
    173a:	02 80       	ldd	r0, Z+2	; 0x02
    173c:	f3 81       	ldd	r31, Z+3	; 0x03
    173e:	e0 2d       	mov	r30, r0
    1740:	85 e0       	ldi	r24, 0x05	; 5
    1742:	68 9f       	mul	r22, r24
    1744:	e0 0d       	add	r30, r0
    1746:	f1 1d       	adc	r31, r1
    1748:	11 24       	eor	r1, r1
    174a:	40 83       	st	Z, r20
    174c:	80 e0       	ldi	r24, 0x00	; 0
    174e:	08 95       	ret
    1750:	8f ef       	ldi	r24, 0xFF	; 255
    1752:	08 95       	ret

00001754 <stdio_putchar>:
    1754:	cf 93       	push	r28
    1756:	c8 2f       	mov	r28, r24
    1758:	8a 30       	cpi	r24, 0x0A	; 10
    175a:	11 f4       	brne	.+4      	; 0x1760 <stdio_putchar+0xc>
    175c:	8d e0       	ldi	r24, 0x0D	; 13
    175e:	fa df       	rcall	.-12     	; 0x1754 <stdio_putchar>
    1760:	5d 9b       	sbis	0x0b, 5	; 11
    1762:	fe cf       	rjmp	.-4      	; 0x1760 <stdio_putchar+0xc>
    1764:	cc b9       	out	0x0c, r28	; 12
    1766:	90 e0       	ldi	r25, 0x00	; 0
    1768:	80 e0       	ldi	r24, 0x00	; 0
    176a:	cf 91       	pop	r28
    176c:	08 95       	ret

0000176e <stdio_getchar>:
    176e:	5f 9b       	sbis	0x0b, 7	; 11
    1770:	fe cf       	rjmp	.-4      	; 0x176e <stdio_getchar>
    1772:	8c b1       	in	r24, 0x0c	; 12
    1774:	90 e0       	ldi	r25, 0x00	; 0
    1776:	08 95       	ret

00001778 <C4M_STDIO_init>:
    1778:	10 92 90 00 	sts	0x0090, r1	; 0x800090 <__TEXT_REGION_LENGTH__+0x7e0090>
    177c:	81 e1       	ldi	r24, 0x11	; 17
    177e:	89 b9       	out	0x09, r24	; 9
    1780:	8a b1       	in	r24, 0x0a	; 10
    1782:	88 61       	ori	r24, 0x18	; 24
    1784:	8a b9       	out	0x0a, r24	; 10
    1786:	e5 e9       	ldi	r30, 0x95	; 149
    1788:	f0 e0       	ldi	r31, 0x00	; 0
    178a:	80 81       	ld	r24, Z
    178c:	86 60       	ori	r24, 0x06	; 6
    178e:	80 83       	st	Z, r24
    1790:	e5 ef       	ldi	r30, 0xF5	; 245
    1792:	f4 e0       	ldi	r31, 0x04	; 4
    1794:	80 e4       	ldi	r24, 0x40	; 64
    1796:	91 e0       	ldi	r25, 0x01	; 1
    1798:	93 83       	std	Z+3, r25	; 0x03
    179a:	82 83       	std	Z+2, r24	; 0x02
    179c:	91 83       	std	Z+1, r25	; 0x01
    179e:	80 83       	st	Z, r24
    17a0:	08 95       	ret

000017a2 <HAL_time_init>:
    17a2:	10 92 f1 04 	sts	0x04F1, r1	; 0x8004f1 <HAL_time_global>
    17a6:	10 92 f2 04 	sts	0x04F2, r1	; 0x8004f2 <HAL_time_global+0x1>
    17aa:	10 92 f3 04 	sts	0x04F3, r1	; 0x8004f3 <HAL_time_global+0x2>
    17ae:	10 92 f4 04 	sts	0x04F4, r1	; 0x8004f4 <HAL_time_global+0x3>
    17b2:	08 95       	ret

000017b4 <HAL_get_time>:
    17b4:	cf 93       	push	r28
    17b6:	df 93       	push	r29
    17b8:	00 d0       	rcall	.+0      	; 0x17ba <HAL_get_time+0x6>
    17ba:	00 d0       	rcall	.+0      	; 0x17bc <HAL_get_time+0x8>
    17bc:	cd b7       	in	r28, 0x3d	; 61
    17be:	de b7       	in	r29, 0x3e	; 62
    17c0:	80 91 f1 04 	lds	r24, 0x04F1	; 0x8004f1 <HAL_time_global>
    17c4:	90 91 f2 04 	lds	r25, 0x04F2	; 0x8004f2 <HAL_time_global+0x1>
    17c8:	a0 91 f3 04 	lds	r26, 0x04F3	; 0x8004f3 <HAL_time_global+0x2>
    17cc:	b0 91 f4 04 	lds	r27, 0x04F4	; 0x8004f4 <HAL_time_global+0x3>
    17d0:	bc 01       	movw	r22, r24
    17d2:	cd 01       	movw	r24, r26
    17d4:	0f 90       	pop	r0
    17d6:	0f 90       	pop	r0
    17d8:	0f 90       	pop	r0
    17da:	0f 90       	pop	r0
    17dc:	df 91       	pop	r29
    17de:	cf 91       	pop	r28
    17e0:	08 95       	ret

000017e2 <HAL_get_expired_time_us>:
    17e2:	cf 92       	push	r12
    17e4:	df 92       	push	r13
    17e6:	ef 92       	push	r14
    17e8:	ff 92       	push	r15
    17ea:	cf 93       	push	r28
    17ec:	df 93       	push	r29
    17ee:	00 d0       	rcall	.+0      	; 0x17f0 <HAL_get_expired_time_us+0xe>
    17f0:	00 d0       	rcall	.+0      	; 0x17f2 <HAL_get_expired_time_us+0x10>
    17f2:	00 d0       	rcall	.+0      	; 0x17f4 <HAL_get_expired_time_us+0x12>
    17f4:	cd b7       	in	r28, 0x3d	; 61
    17f6:	de b7       	in	r29, 0x3e	; 62
    17f8:	69 83       	std	Y+1, r22	; 0x01
    17fa:	7a 83       	std	Y+2, r23	; 0x02
    17fc:	8b 83       	std	Y+3, r24	; 0x03
    17fe:	9c 83       	std	Y+4, r25	; 0x04
    1800:	5e 83       	std	Y+6, r21	; 0x06
    1802:	4d 83       	std	Y+5, r20	; 0x05
    1804:	c0 90 f1 04 	lds	r12, 0x04F1	; 0x8004f1 <HAL_time_global>
    1808:	d0 90 f2 04 	lds	r13, 0x04F2	; 0x8004f2 <HAL_time_global+0x1>
    180c:	e0 90 f3 04 	lds	r14, 0x04F3	; 0x8004f3 <HAL_time_global+0x2>
    1810:	f0 90 f4 04 	lds	r15, 0x04F4	; 0x8004f4 <HAL_time_global+0x3>
    1814:	28 ee       	ldi	r18, 0xE8	; 232
    1816:	33 e0       	ldi	r19, 0x03	; 3
    1818:	40 e0       	ldi	r20, 0x00	; 0
    181a:	50 e0       	ldi	r21, 0x00	; 0
    181c:	f1 d3       	rcall	.+2018   	; 0x2000 <__udivmodsi4>
    181e:	c2 0e       	add	r12, r18
    1820:	d3 1e       	adc	r13, r19
    1822:	e4 1e       	adc	r14, r20
    1824:	f5 1e       	adc	r15, r21
    1826:	ed 81       	ldd	r30, Y+5	; 0x05
    1828:	fe 81       	ldd	r31, Y+6	; 0x06
    182a:	c0 82       	st	Z, r12
    182c:	d1 82       	std	Z+1, r13	; 0x01
    182e:	e2 82       	std	Z+2, r14	; 0x02
    1830:	f3 82       	std	Z+3, r15	; 0x03
    1832:	26 96       	adiw	r28, 0x06	; 6
    1834:	0f b6       	in	r0, 0x3f	; 63
    1836:	f8 94       	cli
    1838:	de bf       	out	0x3e, r29	; 62
    183a:	0f be       	out	0x3f, r0	; 63
    183c:	cd bf       	out	0x3d, r28	; 61
    183e:	df 91       	pop	r29
    1840:	cf 91       	pop	r28
    1842:	ff 90       	pop	r15
    1844:	ef 90       	pop	r14
    1846:	df 90       	pop	r13
    1848:	cf 90       	pop	r12
    184a:	08 95       	ret

0000184c <HAL_get_expired_time_ms>:
    184c:	0f 93       	push	r16
    184e:	1f 93       	push	r17
    1850:	cf 93       	push	r28
    1852:	df 93       	push	r29
    1854:	00 d0       	rcall	.+0      	; 0x1856 <HAL_get_expired_time_ms+0xa>
    1856:	00 d0       	rcall	.+0      	; 0x1858 <HAL_get_expired_time_ms+0xc>
    1858:	cd b7       	in	r28, 0x3d	; 61
    185a:	de b7       	in	r29, 0x3e	; 62
    185c:	69 83       	std	Y+1, r22	; 0x01
    185e:	7a 83       	std	Y+2, r23	; 0x02
    1860:	8b 83       	std	Y+3, r24	; 0x03
    1862:	9c 83       	std	Y+4, r25	; 0x04
    1864:	80 91 f1 04 	lds	r24, 0x04F1	; 0x8004f1 <HAL_time_global>
    1868:	90 91 f2 04 	lds	r25, 0x04F2	; 0x8004f2 <HAL_time_global+0x1>
    186c:	a0 91 f3 04 	lds	r26, 0x04F3	; 0x8004f3 <HAL_time_global+0x2>
    1870:	b0 91 f4 04 	lds	r27, 0x04F4	; 0x8004f4 <HAL_time_global+0x3>
    1874:	09 81       	ldd	r16, Y+1	; 0x01
    1876:	1a 81       	ldd	r17, Y+2	; 0x02
    1878:	2b 81       	ldd	r18, Y+3	; 0x03
    187a:	3c 81       	ldd	r19, Y+4	; 0x04
    187c:	80 0f       	add	r24, r16
    187e:	91 1f       	adc	r25, r17
    1880:	a2 1f       	adc	r26, r18
    1882:	b3 1f       	adc	r27, r19
    1884:	fa 01       	movw	r30, r20
    1886:	80 83       	st	Z, r24
    1888:	91 83       	std	Z+1, r25	; 0x01
    188a:	a2 83       	std	Z+2, r26	; 0x02
    188c:	b3 83       	std	Z+3, r27	; 0x03
    188e:	0f 90       	pop	r0
    1890:	0f 90       	pop	r0
    1892:	0f 90       	pop	r0
    1894:	0f 90       	pop	r0
    1896:	df 91       	pop	r29
    1898:	cf 91       	pop	r28
    189a:	1f 91       	pop	r17
    189c:	0f 91       	pop	r16
    189e:	08 95       	ret

000018a0 <HAL_timeout_test>:
    18a0:	0f 93       	push	r16
    18a2:	1f 93       	push	r17
    18a4:	cf 93       	push	r28
    18a6:	df 93       	push	r29
    18a8:	00 d0       	rcall	.+0      	; 0x18aa <HAL_timeout_test+0xa>
    18aa:	00 d0       	rcall	.+0      	; 0x18ac <HAL_timeout_test+0xc>
    18ac:	cd b7       	in	r28, 0x3d	; 61
    18ae:	de b7       	in	r29, 0x3e	; 62
    18b0:	69 83       	std	Y+1, r22	; 0x01
    18b2:	7a 83       	std	Y+2, r23	; 0x02
    18b4:	8b 83       	std	Y+3, r24	; 0x03
    18b6:	9c 83       	std	Y+4, r25	; 0x04
    18b8:	40 91 f1 04 	lds	r20, 0x04F1	; 0x8004f1 <HAL_time_global>
    18bc:	50 91 f2 04 	lds	r21, 0x04F2	; 0x8004f2 <HAL_time_global+0x1>
    18c0:	60 91 f3 04 	lds	r22, 0x04F3	; 0x8004f3 <HAL_time_global+0x2>
    18c4:	70 91 f4 04 	lds	r23, 0x04F4	; 0x8004f4 <HAL_time_global+0x3>
    18c8:	81 e0       	ldi	r24, 0x01	; 1
    18ca:	09 81       	ldd	r16, Y+1	; 0x01
    18cc:	1a 81       	ldd	r17, Y+2	; 0x02
    18ce:	2b 81       	ldd	r18, Y+3	; 0x03
    18d0:	3c 81       	ldd	r19, Y+4	; 0x04
    18d2:	04 17       	cp	r16, r20
    18d4:	15 07       	cpc	r17, r21
    18d6:	26 07       	cpc	r18, r22
    18d8:	37 07       	cpc	r19, r23
    18da:	08 f0       	brcs	.+2      	; 0x18de <HAL_timeout_test+0x3e>
    18dc:	80 e0       	ldi	r24, 0x00	; 0
    18de:	0f 90       	pop	r0
    18e0:	0f 90       	pop	r0
    18e2:	0f 90       	pop	r0
    18e4:	0f 90       	pop	r0
    18e6:	df 91       	pop	r29
    18e8:	cf 91       	pop	r28
    18ea:	1f 91       	pop	r17
    18ec:	0f 91       	pop	r16
    18ee:	08 95       	ret

000018f0 <HAL_delay>:
    18f0:	cf 93       	push	r28
    18f2:	df 93       	push	r29
    18f4:	00 d0       	rcall	.+0      	; 0x18f6 <HAL_delay+0x6>
    18f6:	00 d0       	rcall	.+0      	; 0x18f8 <HAL_delay+0x8>
    18f8:	cd b7       	in	r28, 0x3d	; 61
    18fa:	de b7       	in	r29, 0x3e	; 62
    18fc:	69 83       	std	Y+1, r22	; 0x01
    18fe:	7a 83       	std	Y+2, r23	; 0x02
    1900:	8b 83       	std	Y+3, r24	; 0x03
    1902:	9c 83       	std	Y+4, r25	; 0x04
    1904:	80 91 f1 04 	lds	r24, 0x04F1	; 0x8004f1 <HAL_time_global>
    1908:	90 91 f2 04 	lds	r25, 0x04F2	; 0x8004f2 <HAL_time_global+0x1>
    190c:	a0 91 f3 04 	lds	r26, 0x04F3	; 0x8004f3 <HAL_time_global+0x2>
    1910:	b0 91 f4 04 	lds	r27, 0x04F4	; 0x8004f4 <HAL_time_global+0x3>
    1914:	29 81       	ldd	r18, Y+1	; 0x01
    1916:	3a 81       	ldd	r19, Y+2	; 0x02
    1918:	4b 81       	ldd	r20, Y+3	; 0x03
    191a:	5c 81       	ldd	r21, Y+4	; 0x04
    191c:	82 0f       	add	r24, r18
    191e:	93 1f       	adc	r25, r19
    1920:	a4 1f       	adc	r26, r20
    1922:	b5 1f       	adc	r27, r21
    1924:	40 91 f1 04 	lds	r20, 0x04F1	; 0x8004f1 <HAL_time_global>
    1928:	50 91 f2 04 	lds	r21, 0x04F2	; 0x8004f2 <HAL_time_global+0x1>
    192c:	60 91 f3 04 	lds	r22, 0x04F3	; 0x8004f3 <HAL_time_global+0x2>
    1930:	70 91 f4 04 	lds	r23, 0x04F4	; 0x8004f4 <HAL_time_global+0x3>
    1934:	48 17       	cp	r20, r24
    1936:	59 07       	cpc	r21, r25
    1938:	6a 07       	cpc	r22, r26
    193a:	7b 07       	cpc	r23, r27
    193c:	98 f3       	brcs	.-26     	; 0x1924 <HAL_delay+0x34>
    193e:	0f 90       	pop	r0
    1940:	0f 90       	pop	r0
    1942:	0f 90       	pop	r0
    1944:	0f 90       	pop	r0
    1946:	df 91       	pop	r29
    1948:	cf 91       	pop	r28
    194a:	08 95       	ret

0000194c <HAL_tick>:
    194c:	80 91 f1 04 	lds	r24, 0x04F1	; 0x8004f1 <HAL_time_global>
    1950:	90 91 f2 04 	lds	r25, 0x04F2	; 0x8004f2 <HAL_time_global+0x1>
    1954:	a0 91 f3 04 	lds	r26, 0x04F3	; 0x8004f3 <HAL_time_global+0x2>
    1958:	b0 91 f4 04 	lds	r27, 0x04F4	; 0x8004f4 <HAL_time_global+0x3>
    195c:	01 96       	adiw	r24, 0x01	; 1
    195e:	a1 1d       	adc	r26, r1
    1960:	b1 1d       	adc	r27, r1
    1962:	80 93 f1 04 	sts	0x04F1, r24	; 0x8004f1 <HAL_time_global>
    1966:	90 93 f2 04 	sts	0x04F2, r25	; 0x8004f2 <HAL_time_global+0x1>
    196a:	a0 93 f3 04 	sts	0x04F3, r26	; 0x8004f3 <HAL_time_global+0x2>
    196e:	b0 93 f4 04 	sts	0x04F4, r27	; 0x8004f4 <HAL_time_global+0x3>
    1972:	08 95       	ret

00001974 <ASABUS_ID_set>:
    1974:	88 30       	cpi	r24, 0x08	; 8
    1976:	40 f4       	brcc	.+16     	; 0x1988 <ASABUS_ID_set+0x14>
    1978:	28 b3       	in	r18, 0x18	; 24
    197a:	2f 71       	andi	r18, 0x1F	; 31
    197c:	30 e2       	ldi	r19, 0x20	; 32
    197e:	83 9f       	mul	r24, r19
    1980:	c0 01       	movw	r24, r0
    1982:	11 24       	eor	r1, r1
    1984:	82 2b       	or	r24, r18
    1986:	88 bb       	out	0x18, r24	; 24
    1988:	08 95       	ret

0000198a <ASABUS_ID_init>:
    198a:	87 b3       	in	r24, 0x17	; 23
    198c:	80 6e       	ori	r24, 0xE0	; 224
    198e:	87 bb       	out	0x17, r24	; 23
    1990:	08 95       	ret

00001992 <ASABUS_SPI_init>:
    1992:	87 b3       	in	r24, 0x17	; 23
    1994:	80 7f       	andi	r24, 0xF0	; 240
    1996:	87 60       	ori	r24, 0x07	; 7
    1998:	87 bb       	out	0x17, r24	; 23
    199a:	e1 e6       	ldi	r30, 0x61	; 97
    199c:	f0 e0       	ldi	r31, 0x00	; 0
    199e:	80 81       	ld	r24, Z
    19a0:	80 61       	ori	r24, 0x10	; 16
    19a2:	80 83       	st	Z, r24
    19a4:	83 e5       	ldi	r24, 0x53	; 83
    19a6:	8d b9       	out	0x0d, r24	; 13
    19a8:	81 e0       	ldi	r24, 0x01	; 1
    19aa:	8e b9       	out	0x0e, r24	; 14
    19ac:	08 95       	ret

000019ae <ASABUS_SPI_swap>:
    19ae:	8f b9       	out	0x0f, r24	; 15
    19b0:	77 9b       	sbis	0x0e, 7	; 14
    19b2:	fe cf       	rjmp	.-4      	; 0x19b0 <ASABUS_SPI_swap+0x2>
    19b4:	8f b1       	in	r24, 0x0f	; 15
    19b6:	08 95       	ret

000019b8 <ASABUS_UART_init>:
    19b8:	10 92 98 00 	sts	0x0098, r1	; 0x800098 <__TEXT_REGION_LENGTH__+0x7e0098>
    19bc:	81 e1       	ldi	r24, 0x11	; 17
    19be:	80 93 99 00 	sts	0x0099, r24	; 0x800099 <__TEXT_REGION_LENGTH__+0x7e0099>
    19c2:	ea e9       	ldi	r30, 0x9A	; 154
    19c4:	f0 e0       	ldi	r31, 0x00	; 0
    19c6:	80 81       	ld	r24, Z
    19c8:	88 61       	ori	r24, 0x18	; 24
    19ca:	80 83       	st	Z, r24
    19cc:	ed e9       	ldi	r30, 0x9D	; 157
    19ce:	f0 e0       	ldi	r31, 0x00	; 0
    19d0:	80 81       	ld	r24, Z
    19d2:	86 60       	ori	r24, 0x06	; 6
    19d4:	80 83       	st	Z, r24
    19d6:	08 95       	ret

000019d8 <ASABUS_UART_transmit>:
    19d8:	90 91 9b 00 	lds	r25, 0x009B	; 0x80009b <__TEXT_REGION_LENGTH__+0x7e009b>
    19dc:	95 ff       	sbrs	r25, 5
    19de:	fc cf       	rjmp	.-8      	; 0x19d8 <ASABUS_UART_transmit>
    19e0:	80 93 9c 00 	sts	0x009C, r24	; 0x80009c <__TEXT_REGION_LENGTH__+0x7e009c>
    19e4:	08 95       	ret

000019e6 <ASABUS_UART_receive>:
    19e6:	80 91 9b 00 	lds	r24, 0x009B	; 0x80009b <__TEXT_REGION_LENGTH__+0x7e009b>
    19ea:	87 ff       	sbrs	r24, 7
    19ec:	fc cf       	rjmp	.-8      	; 0x19e6 <ASABUS_UART_receive>
    19ee:	80 91 9c 00 	lds	r24, 0x009C	; 0x80009c <__TEXT_REGION_LENGTH__+0x7e009c>
    19f2:	08 95       	ret

000019f4 <main>:
unsigned char bye_2_left[16]={};//

int k;

int main(void)
{
    19f4:	2f 92       	push	r2
    19f6:	3f 92       	push	r3
    19f8:	4f 92       	push	r4
    19fa:	5f 92       	push	r5
    19fc:	6f 92       	push	r6
    19fe:	7f 92       	push	r7
    1a00:	8f 92       	push	r8
    1a02:	9f 92       	push	r9
    1a04:	af 92       	push	r10
    1a06:	bf 92       	push	r11
    1a08:	df 92       	push	r13
    1a0a:	ef 92       	push	r14
    1a0c:	ff 92       	push	r15
    1a0e:	0f 93       	push	r16
    1a10:	1f 93       	push	r17
    1a12:	cf 93       	push	r28
    1a14:	df 93       	push	r29
    1a16:	cd b7       	in	r28, 0x3d	; 61
    1a18:	de b7       	in	r29, 0x3e	; 62
    1a1a:	a2 97       	sbiw	r28, 0x22	; 34
    1a1c:	0f b6       	in	r0, 0x3f	; 63
    1a1e:	f8 94       	cli
    1a20:	de bf       	out	0x3e, r29	; 62
    1a22:	0f be       	out	0x3f, r0	; 63
    1a24:	cd bf       	out	0x3d, r28	; 61
	ASA_RC16M128_set();//
    1a26:	37 d2       	rcall	.+1134   	; 0x1e96 <ASA_RC16M128_set>
	C4M_DEVICE_set();
    1a28:	0e 94 6b 00 	call	0xd6	; 0xd6 <C4M_DEVICE_set>
	RC16M128_Servo_Enable_All();//
    1a2c:	2f ef       	ldi	r18, 0xFF	; 255
    1a2e:	40 e0       	ldi	r20, 0x00	; 0
    1a30:	6f ef       	ldi	r22, 0xFF	; 255
    1a32:	88 ec       	ldi	r24, 0xC8	; 200
    1a34:	0c d2       	rcall	.+1048   	; 0x1e4e <RC16M128_Servo_set>
    1a36:	2f ef       	ldi	r18, 0xFF	; 255
    1a38:	40 e0       	ldi	r20, 0x00	; 0
    1a3a:	6f ef       	ldi	r22, 0xFF	; 255
    1a3c:	89 ec       	ldi	r24, 0xC9	; 201
    1a3e:	07 d2       	rcall	.+1038   	; 0x1e4e <RC16M128_Servo_set>
    1a40:	e0 ea       	ldi	r30, 0xA0	; 160
    1a42:	f4 e0       	ldi	r31, 0x04	; 4
    1a44:	8e ee       	ldi	r24, 0xEE	; 238
    1a46:	92 e0       	ldi	r25, 0x02	; 2
    1a48:	9a 83       	std	Y+2, r25	; 0x02
    1a4a:	89 83       	std	Y+1, r24	; 0x01
    1a4c:	0f 2e       	mov	r0, r31
    1a4e:	f0 eb       	ldi	r31, 0xB0	; 176
    1a50:	8f 2e       	mov	r8, r31
    1a52:	f4 e0       	ldi	r31, 0x04	; 4
    1a54:	9f 2e       	mov	r9, r31
    1a56:	f0 2d       	mov	r31, r0
    1a58:	20 eb       	ldi	r18, 0xB0	; 176
    1a5a:	34 e0       	ldi	r19, 0x04	; 4
    1a5c:	ac 01       	movw	r20, r24
    1a5e:	b4 01       	movw	r22, r8
	//RC16M128_Servo_put( 0, 16, stand); //
	for(int j=0; j<=15; j++){
		Initial[j]=offset_initial[j]+original[j];
    1a60:	91 91       	ld	r25, Z+
    1a62:	da 01       	movw	r26, r20
    1a64:	8d 91       	ld	r24, X+
    1a66:	ad 01       	movw	r20, r26
    1a68:	89 0f       	add	r24, r25
    1a6a:	db 01       	movw	r26, r22
    1a6c:	8d 93       	st	X+, r24
    1a6e:	bd 01       	movw	r22, r26
{
	ASA_RC16M128_set();//
	C4M_DEVICE_set();
	RC16M128_Servo_Enable_All();//
	//RC16M128_Servo_put( 0, 16, stand); //
	for(int j=0; j<=15; j++){
    1a70:	e2 17       	cp	r30, r18
    1a72:	f3 07       	cpc	r31, r19
    1a74:	a9 f7       	brne	.-22     	; 0x1a60 <main+0x6c>
    1a76:	0f 2e       	mov	r0, r31
    1a78:	fe ec       	ldi	r31, 0xCE	; 206
    1a7a:	6f 2e       	mov	r6, r31
    1a7c:	f2 e0       	ldi	r31, 0x02	; 2
    1a7e:	7f 2e       	mov	r7, r31
    1a80:	f0 2d       	mov	r31, r0
    1a82:	0f 2e       	mov	r0, r31
    1a84:	f0 e3       	ldi	r31, 0x30	; 48
    1a86:	4f 2e       	mov	r4, r31
    1a88:	f3 e0       	ldi	r31, 0x03	; 3
    1a8a:	5f 2e       	mov	r5, r31
    1a8c:	f0 2d       	mov	r31, r0
    1a8e:	0f 2e       	mov	r0, r31
    1a90:	fe ec       	ldi	r31, 0xCE	; 206
    1a92:	2f 2e       	mov	r2, r31
    1a94:	f1 e0       	ldi	r31, 0x01	; 1
    1a96:	3f 2e       	mov	r3, r31
    1a98:	f0 2d       	mov	r31, r0
    1a9a:	8e ed       	ldi	r24, 0xDE	; 222
    1a9c:	92 e0       	ldi	r25, 0x02	; 2
    1a9e:	9a 83       	std	Y+2, r25	; 0x02
    1aa0:	89 83       	std	Y+1, r24	; 0x01
    1aa2:	a0 e9       	ldi	r26, 0x90	; 144
    1aa4:	b4 e0       	ldi	r27, 0x04	; 4
    1aa6:	bc 83       	std	Y+4, r27	; 0x04
    1aa8:	ab 83       	std	Y+3, r26	; 0x03
    1aaa:	8e eb       	ldi	r24, 0xBE	; 190
    1aac:	91 e0       	ldi	r25, 0x01	; 1
    1aae:	9e 83       	std	Y+6, r25	; 0x06
    1ab0:	8d 83       	std	Y+5, r24	; 0x05
    1ab2:	a0 e8       	ldi	r26, 0x80	; 128
    1ab4:	b4 e0       	ldi	r27, 0x04	; 4
    1ab6:	b8 87       	std	Y+8, r27	; 0x08
    1ab8:	af 83       	std	Y+7, r26	; 0x07
    1aba:	8e ea       	ldi	r24, 0xAE	; 174
    1abc:	91 e0       	ldi	r25, 0x01	; 1
    1abe:	9a 87       	std	Y+10, r25	; 0x0a
    1ac0:	89 87       	std	Y+9, r24	; 0x09
    1ac2:	a0 e7       	ldi	r26, 0x70	; 112
    1ac4:	b4 e0       	ldi	r27, 0x04	; 4
    1ac6:	bc 87       	std	Y+12, r27	; 0x0c
    1ac8:	ab 87       	std	Y+11, r26	; 0x0b
    1aca:	8e e9       	ldi	r24, 0x9E	; 158
    1acc:	91 e0       	ldi	r25, 0x01	; 1
    1ace:	9e 87       	std	Y+14, r25	; 0x0e
    1ad0:	8d 87       	std	Y+13, r24	; 0x0d
    1ad2:	a0 e6       	ldi	r26, 0x60	; 96
    1ad4:	b4 e0       	ldi	r27, 0x04	; 4
    1ad6:	b8 8b       	std	Y+16, r27	; 0x10
    1ad8:	af 87       	std	Y+15, r26	; 0x0f
    1ada:	8e e8       	ldi	r24, 0x8E	; 142
    1adc:	91 e0       	ldi	r25, 0x01	; 1
    1ade:	9a 8b       	std	Y+18, r25	; 0x12
    1ae0:	89 8b       	std	Y+17, r24	; 0x11
    1ae2:	a0 e5       	ldi	r26, 0x50	; 80
    1ae4:	b4 e0       	ldi	r27, 0x04	; 4
    1ae6:	bc 8b       	std	Y+20, r27	; 0x14
    1ae8:	ab 8b       	std	Y+19, r26	; 0x13
    1aea:	8e e7       	ldi	r24, 0x7E	; 126
    1aec:	91 e0       	ldi	r25, 0x01	; 1
    1aee:	9e 8b       	std	Y+22, r25	; 0x16
    1af0:	8d 8b       	std	Y+21, r24	; 0x15
    1af2:	a0 e4       	ldi	r26, 0x40	; 64
    1af4:	b4 e0       	ldi	r27, 0x04	; 4
    1af6:	b8 8f       	std	Y+24, r27	; 0x18
    1af8:	af 8b       	std	Y+23, r26	; 0x17
    1afa:	8e e6       	ldi	r24, 0x6E	; 110
    1afc:	91 e0       	ldi	r25, 0x01	; 1
    1afe:	9a 8f       	std	Y+26, r25	; 0x1a
    1b00:	89 8f       	std	Y+25, r24	; 0x19
    1b02:	a0 e3       	ldi	r26, 0x30	; 48
    1b04:	b4 e0       	ldi	r27, 0x04	; 4
    1b06:	bc 8f       	std	Y+28, r27	; 0x1c
    1b08:	ab 8f       	std	Y+27, r26	; 0x1b
    1b0a:	8e e5       	ldi	r24, 0x5E	; 94
    1b0c:	92 e0       	ldi	r25, 0x02	; 2
    1b0e:	9e 8f       	std	Y+30, r25	; 0x1e
    1b10:	8d 8f       	std	Y+29, r24	; 0x1d
    1b12:	00 e2       	ldi	r16, 0x20	; 32
    1b14:	14 e0       	ldi	r17, 0x04	; 4
    1b16:	6e e4       	ldi	r22, 0x4E	; 78
    1b18:	72 e0       	ldi	r23, 0x02	; 2
    1b1a:	40 e1       	ldi	r20, 0x10	; 16
    1b1c:	54 e0       	ldi	r21, 0x04	; 4
    1b1e:	ae e3       	ldi	r26, 0x3E	; 62
    1b20:	b2 e0       	ldi	r27, 0x02	; 2
    1b22:	b8 a3       	std	Y+32, r27	; 0x20
    1b24:	af 8f       	std	Y+31, r26	; 0x1f
    1b26:	a0 e0       	ldi	r26, 0x00	; 0
    1b28:	b4 e0       	ldi	r27, 0x04	; 4
    1b2a:	ee e2       	ldi	r30, 0x2E	; 46
    1b2c:	f2 e0       	ldi	r31, 0x02	; 2
    1b2e:	0f 2e       	mov	r0, r31
    1b30:	f0 ef       	ldi	r31, 0xF0	; 240
    1b32:	af 2e       	mov	r10, r31
    1b34:	f3 e0       	ldi	r31, 0x03	; 3
    1b36:	bf 2e       	mov	r11, r31
    1b38:	f0 2d       	mov	r31, r0
    1b3a:	20 e0       	ldi	r18, 0x00	; 0
    1b3c:	30 e0       	ldi	r19, 0x00	; 0
    1b3e:	ba a3       	std	Y+34, r27	; 0x22
    1b40:	a9 a3       	std	Y+33, r26	; 0x21
		Initial[j]=offset_initial[j]+original[j];
	}
	
	for (int i=0; i<=15;i++){
		
		Initial_low[i]=Initial[i]+offset_Initial_low[i];
    1b42:	d4 01       	movw	r26, r8
    1b44:	9d 91       	ld	r25, X+
    1b46:	4d 01       	movw	r8, r26
    1b48:	d3 01       	movw	r26, r6
    1b4a:	8d 91       	ld	r24, X+
    1b4c:	3d 01       	movw	r6, r26
    1b4e:	89 0f       	add	r24, r25
    1b50:	d2 01       	movw	r26, r4
    1b52:	8d 93       	st	X+, r24
    1b54:	2d 01       	movw	r4, r26
		
		stand[i]=Initial[i]+offset_stand[i]+down[i];
    1b56:	d1 01       	movw	r26, r2
    1b58:	8d 91       	ld	r24, X+
    1b5a:	1d 01       	movw	r2, r26
    1b5c:	a9 81       	ldd	r26, Y+1	; 0x01
    1b5e:	ba 81       	ldd	r27, Y+2	; 0x02
    1b60:	fd 90       	ld	r15, X+
    1b62:	ba 83       	std	Y+2, r27	; 0x02
    1b64:	a9 83       	std	Y+1, r26	; 0x01
    1b66:	89 0f       	add	r24, r25
    1b68:	8f 0d       	add	r24, r15
    1b6a:	ab 81       	ldd	r26, Y+3	; 0x03
    1b6c:	bc 81       	ldd	r27, Y+4	; 0x04
    1b6e:	8d 93       	st	X+, r24
    1b70:	bc 83       	std	Y+4, r27	; 0x04
    1b72:	ab 83       	std	Y+3, r26	; 0x03
		two_hand_v[i]=Initial[i]+offset_two_hand_v[i]+down[i];
    1b74:	ad 81       	ldd	r26, Y+5	; 0x05
    1b76:	be 81       	ldd	r27, Y+6	; 0x06
    1b78:	8d 91       	ld	r24, X+
    1b7a:	be 83       	std	Y+6, r27	; 0x06
    1b7c:	ad 83       	std	Y+5, r26	; 0x05
    1b7e:	d9 2e       	mov	r13, r25
    1b80:	df 0c       	add	r13, r15
    1b82:	8d 0d       	add	r24, r13
    1b84:	af 81       	ldd	r26, Y+7	; 0x07
    1b86:	b8 85       	ldd	r27, Y+8	; 0x08
    1b88:	8d 93       	st	X+, r24
    1b8a:	b8 87       	std	Y+8, r27	; 0x08
    1b8c:	af 83       	std	Y+7, r26	; 0x07
		Kneel[i]=Initial[i]+offset_Kneel[i]+down[i];
    1b8e:	a9 85       	ldd	r26, Y+9	; 0x09
    1b90:	ba 85       	ldd	r27, Y+10	; 0x0a
    1b92:	8d 91       	ld	r24, X+
    1b94:	ba 87       	std	Y+10, r27	; 0x0a
    1b96:	a9 87       	std	Y+9, r26	; 0x09
    1b98:	8d 0d       	add	r24, r13
    1b9a:	ab 85       	ldd	r26, Y+11	; 0x0b
    1b9c:	bc 85       	ldd	r27, Y+12	; 0x0c
    1b9e:	8d 93       	st	X+, r24
    1ba0:	bc 87       	std	Y+12, r27	; 0x0c
    1ba2:	ab 87       	std	Y+11, r26	; 0x0b
		head_right[i]=Initial[i]+offset_head_right[i]+down[i];
    1ba4:	ad 85       	ldd	r26, Y+13	; 0x0d
    1ba6:	be 85       	ldd	r27, Y+14	; 0x0e
    1ba8:	8d 91       	ld	r24, X+
    1baa:	be 87       	std	Y+14, r27	; 0x0e
    1bac:	ad 87       	std	Y+13, r26	; 0x0d
    1bae:	8d 0d       	add	r24, r13
    1bb0:	af 85       	ldd	r26, Y+15	; 0x0f
    1bb2:	b8 89       	ldd	r27, Y+16	; 0x10
    1bb4:	8d 93       	st	X+, r24
    1bb6:	b8 8b       	std	Y+16, r27	; 0x10
    1bb8:	af 87       	std	Y+15, r26	; 0x0f
		head_left[i]=Initial[i]+offset_head_left[i]+down[i];
    1bba:	a9 89       	ldd	r26, Y+17	; 0x11
    1bbc:	ba 89       	ldd	r27, Y+18	; 0x12
    1bbe:	8d 91       	ld	r24, X+
    1bc0:	ba 8b       	std	Y+18, r27	; 0x12
    1bc2:	a9 8b       	std	Y+17, r26	; 0x11
    1bc4:	8d 0d       	add	r24, r13
    1bc6:	ab 89       	ldd	r26, Y+19	; 0x13
    1bc8:	bc 89       	ldd	r27, Y+20	; 0x14
    1bca:	8d 93       	st	X+, r24
    1bcc:	bc 8b       	std	Y+20, r27	; 0x14
    1bce:	ab 8b       	std	Y+19, r26	; 0x13
		waist_right[i]=Initial[i]+offset_waist_right[i]+down[i];
    1bd0:	ad 89       	ldd	r26, Y+21	; 0x15
    1bd2:	be 89       	ldd	r27, Y+22	; 0x16
    1bd4:	8d 91       	ld	r24, X+
    1bd6:	be 8b       	std	Y+22, r27	; 0x16
    1bd8:	ad 8b       	std	Y+21, r26	; 0x15
    1bda:	8d 0d       	add	r24, r13
    1bdc:	af 89       	ldd	r26, Y+23	; 0x17
    1bde:	b8 8d       	ldd	r27, Y+24	; 0x18
    1be0:	8d 93       	st	X+, r24
    1be2:	b8 8f       	std	Y+24, r27	; 0x18
    1be4:	af 8b       	std	Y+23, r26	; 0x17
		waist_left[i]=Initial[i]+offset_waist_left[i]+down[i];
    1be6:	a9 8d       	ldd	r26, Y+25	; 0x19
    1be8:	ba 8d       	ldd	r27, Y+26	; 0x1a
    1bea:	8d 91       	ld	r24, X+
    1bec:	ba 8f       	std	Y+26, r27	; 0x1a
    1bee:	a9 8f       	std	Y+25, r26	; 0x19
    1bf0:	8d 0d       	add	r24, r13
    1bf2:	ab 8d       	ldd	r26, Y+27	; 0x1b
    1bf4:	bc 8d       	ldd	r27, Y+28	; 0x1c
    1bf6:	8d 93       	st	X+, r24
    1bf8:	bc 8f       	std	Y+28, r27	; 0x1c
    1bfa:	ab 8f       	std	Y+27, r26	; 0x1b
		leftup_right[i]=Initial[i]+offset_leftup_right[i]+down[i];
    1bfc:	ad 8d       	ldd	r26, Y+29	; 0x1d
    1bfe:	be 8d       	ldd	r27, Y+30	; 0x1e
    1c00:	8d 91       	ld	r24, X+
    1c02:	be 8f       	std	Y+30, r27	; 0x1e
    1c04:	ad 8f       	std	Y+29, r26	; 0x1d
    1c06:	8d 0d       	add	r24, r13
    1c08:	d8 01       	movw	r26, r16
    1c0a:	8d 93       	st	X+, r24
    1c0c:	8d 01       	movw	r16, r26
		leftup_right2[i]=Initial[i]+offset_leftup_right2[i]+down[i];
    1c0e:	db 01       	movw	r26, r22
    1c10:	8d 91       	ld	r24, X+
    1c12:	bd 01       	movw	r22, r26
    1c14:	8d 0d       	add	r24, r13
    1c16:	da 01       	movw	r26, r20
    1c18:	8d 93       	st	X+, r24
    1c1a:	ad 01       	movw	r20, r26
		rightup_left[i]=Initial[i]+offset_rightup_left[i]+down[i];
    1c1c:	af 8d       	ldd	r26, Y+31	; 0x1f
    1c1e:	b8 a1       	ldd	r27, Y+32	; 0x20
    1c20:	8d 91       	ld	r24, X+
    1c22:	b8 a3       	std	Y+32, r27	; 0x20
    1c24:	af 8f       	std	Y+31, r26	; 0x1f
    1c26:	8d 0d       	add	r24, r13
    1c28:	a9 a1       	ldd	r26, Y+33	; 0x21
    1c2a:	ba a1       	ldd	r27, Y+34	; 0x22
    1c2c:	8d 93       	st	X+, r24
    1c2e:	ba a3       	std	Y+34, r27	; 0x22
    1c30:	a9 a3       	std	Y+33, r26	; 0x21
		rightup_left2[i]=Initial[i]+offset_rightup_left2[i]+down[i];
    1c32:	81 91       	ld	r24, Z+
    1c34:	8d 0d       	add	r24, r13
    1c36:	d5 01       	movw	r26, r10
    1c38:	8d 93       	st	X+, r24
    1c3a:	5d 01       	movw	r10, r26
		handshake_shoulder_up[i]=Initial[i]+offset_handshake_shoulder_up[i]+down[i];
    1c3c:	c9 01       	movw	r24, r18
    1c3e:	80 52       	subi	r24, 0x20	; 32
    1c40:	9c 4f       	sbci	r25, 0xFC	; 252
    1c42:	d9 01       	movw	r26, r18
    1c44:	a2 5e       	subi	r26, 0xE2	; 226
    1c46:	bd 4f       	sbci	r27, 0xFD	; 253
    1c48:	fc 90       	ld	r15, X
    1c4a:	fd 0c       	add	r15, r13
    1c4c:	dc 01       	movw	r26, r24
    1c4e:	fc 92       	st	X, r15
		handshake1[i]=Initial[i]+offset_handshake1[i]+down[i];
    1c50:	c9 01       	movw	r24, r18
    1c52:	80 53       	subi	r24, 0x30	; 48
    1c54:	9c 4f       	sbci	r25, 0xFC	; 252
    1c56:	d9 01       	movw	r26, r18
    1c58:	a2 5f       	subi	r26, 0xF2	; 242
    1c5a:	bd 4f       	sbci	r27, 0xFD	; 253
    1c5c:	fc 90       	ld	r15, X
    1c5e:	fd 0c       	add	r15, r13
    1c60:	dc 01       	movw	r26, r24
    1c62:	fc 92       	st	X, r15
		handshake2[i]=Initial[i]+offset_handshake2[i]+down[i];
    1c64:	c9 01       	movw	r24, r18
    1c66:	80 54       	subi	r24, 0x40	; 64
    1c68:	9c 4f       	sbci	r25, 0xFC	; 252
    1c6a:	d9 01       	movw	r26, r18
    1c6c:	a2 50       	subi	r26, 0x02	; 2
    1c6e:	be 4f       	sbci	r27, 0xFE	; 254
    1c70:	fc 90       	ld	r15, X
    1c72:	fd 0c       	add	r15, r13
    1c74:	dc 01       	movw	r26, r24
    1c76:	fc 92       	st	X, r15
		bigwaist_right[i]=Initial[i]+offset_bigwaist_right[i]+down[i];
    1c78:	c9 01       	movw	r24, r18
    1c7a:	80 55       	subi	r24, 0x50	; 80
    1c7c:	9c 4f       	sbci	r25, 0xFC	; 252
    1c7e:	d9 01       	movw	r26, r18
    1c80:	a2 51       	subi	r26, 0x12	; 18
    1c82:	be 4f       	sbci	r27, 0xFE	; 254
    1c84:	fc 90       	ld	r15, X
    1c86:	fd 0c       	add	r15, r13
    1c88:	dc 01       	movw	r26, r24
    1c8a:	fc 92       	st	X, r15
		bigwaist_left[i]=Initial[i]+offset_bigwaist_left[i]+down[i];
    1c8c:	c9 01       	movw	r24, r18
    1c8e:	80 56       	subi	r24, 0x60	; 96
    1c90:	9c 4f       	sbci	r25, 0xFC	; 252
    1c92:	d9 01       	movw	r26, r18
    1c94:	a2 52       	subi	r26, 0x22	; 34
    1c96:	be 4f       	sbci	r27, 0xFE	; 254
    1c98:	fc 90       	ld	r15, X
    1c9a:	fd 0c       	add	r15, r13
    1c9c:	dc 01       	movw	r26, r24
    1c9e:	fc 92       	st	X, r15
		twohand90_1[i]=Initial[i]+offset_twohand90_1[i]+down[i];
    1ca0:	c9 01       	movw	r24, r18
    1ca2:	80 57       	subi	r24, 0x70	; 112
    1ca4:	9c 4f       	sbci	r25, 0xFC	; 252
    1ca6:	d9 01       	movw	r26, r18
    1ca8:	a2 54       	subi	r26, 0x42	; 66
    1caa:	bd 4f       	sbci	r27, 0xFD	; 253
    1cac:	fc 90       	ld	r15, X
    1cae:	fd 0c       	add	r15, r13
    1cb0:	dc 01       	movw	r26, r24
    1cb2:	fc 92       	st	X, r15
		twohand90_2[i]=Initial[i]+offset_twohand90_2[i]+down[i];
    1cb4:	c9 01       	movw	r24, r18
    1cb6:	80 58       	subi	r24, 0x80	; 128
    1cb8:	9c 4f       	sbci	r25, 0xFC	; 252
    1cba:	d9 01       	movw	r26, r18
    1cbc:	a2 55       	subi	r26, 0x52	; 82
    1cbe:	bd 4f       	sbci	r27, 0xFD	; 253
    1cc0:	fc 90       	ld	r15, X
    1cc2:	fd 0c       	add	r15, r13
    1cc4:	dc 01       	movw	r26, r24
    1cc6:	fc 92       	st	X, r15
		pose1[i]=Initial[i]+offset_pose1[i]+down[i];
    1cc8:	c9 01       	movw	r24, r18
    1cca:	80 59       	subi	r24, 0x90	; 144
    1ccc:	9c 4f       	sbci	r25, 0xFC	; 252
    1cce:	d9 01       	movw	r26, r18
    1cd0:	a2 56       	subi	r26, 0x62	; 98
    1cd2:	bd 4f       	sbci	r27, 0xFD	; 253
    1cd4:	fc 90       	ld	r15, X
    1cd6:	fd 0c       	add	r15, r13
    1cd8:	dc 01       	movw	r26, r24
    1cda:	fc 92       	st	X, r15
		pose2[i]=Initial[i]+offset_pose2[i]+down[i];
    1cdc:	c9 01       	movw	r24, r18
    1cde:	80 5a       	subi	r24, 0xA0	; 160
    1ce0:	9c 4f       	sbci	r25, 0xFC	; 252
    1ce2:	d9 01       	movw	r26, r18
    1ce4:	a2 57       	subi	r26, 0x72	; 114
    1ce6:	bd 4f       	sbci	r27, 0xFD	; 253
    1ce8:	fc 90       	ld	r15, X
    1cea:	fd 0c       	add	r15, r13
    1cec:	dc 01       	movw	r26, r24
    1cee:	fc 92       	st	X, r15
		twohandup1[i]=Initial[i]+offset_twohendup1[i]+down[i];
    1cf0:	c9 01       	movw	r24, r18
    1cf2:	80 5b       	subi	r24, 0xB0	; 176
    1cf4:	9c 4f       	sbci	r25, 0xFC	; 252
    1cf6:	d9 01       	movw	r26, r18
    1cf8:	a2 58       	subi	r26, 0x82	; 130
    1cfa:	bd 4f       	sbci	r27, 0xFD	; 253
    1cfc:	fc 90       	ld	r15, X
    1cfe:	fd 0c       	add	r15, r13
    1d00:	dc 01       	movw	r26, r24
    1d02:	fc 92       	st	X, r15
		twohandup2[i]=Initial[i]+offset_twohendup2[i]+down[i];
    1d04:	c9 01       	movw	r24, r18
    1d06:	80 5c       	subi	r24, 0xC0	; 192
    1d08:	9c 4f       	sbci	r25, 0xFC	; 252
    1d0a:	d9 01       	movw	r26, r18
    1d0c:	a2 59       	subi	r26, 0x92	; 146
    1d0e:	bd 4f       	sbci	r27, 0xFD	; 253
    1d10:	fc 90       	ld	r15, X
    1d12:	fd 0c       	add	r15, r13
    1d14:	dc 01       	movw	r26, r24
    1d16:	fc 92       	st	X, r15
		bye_1_left[i]=Initial[i]+offset_bye_1_left[i]+down[i];
    1d18:	c9 01       	movw	r24, r18
    1d1a:	80 5e       	subi	r24, 0xE0	; 224
    1d1c:	9c 4f       	sbci	r25, 0xFC	; 252
    1d1e:	d9 01       	movw	r26, r18
    1d20:	a2 5a       	subi	r26, 0xA2	; 162
    1d22:	be 4f       	sbci	r27, 0xFE	; 254
    1d24:	fc 90       	ld	r15, X
    1d26:	fd 0c       	add	r15, r13
    1d28:	dc 01       	movw	r26, r24
    1d2a:	fc 92       	st	X, r15
		bye_2_left[i]=Initial[i]+offset_bye_2_left[i]+down[i];
    1d2c:	c9 01       	movw	r24, r18
    1d2e:	80 5f       	subi	r24, 0xF0	; 240
    1d30:	9c 4f       	sbci	r25, 0xFC	; 252
    1d32:	d9 01       	movw	r26, r18
    1d34:	a2 5b       	subi	r26, 0xB2	; 178
    1d36:	be 4f       	sbci	r27, 0xFE	; 254
    1d38:	fc 90       	ld	r15, X
    1d3a:	fd 0c       	add	r15, r13
    1d3c:	dc 01       	movw	r26, r24
    1d3e:	fc 92       	st	X, r15
	//RC16M128_Servo_put( 0, 16, stand); //
	for(int j=0; j<=15; j++){
		Initial[j]=offset_initial[j]+original[j];
	}
	
	for (int i=0; i<=15;i++){
    1d40:	2f 5f       	subi	r18, 0xFF	; 255
    1d42:	3f 4f       	sbci	r19, 0xFF	; 255
    1d44:	20 31       	cpi	r18, 0x10	; 16
    1d46:	31 05       	cpc	r19, r1
    1d48:	09 f0       	breq	.+2      	; 0x1d4c <main+0x358>
    1d4a:	fb ce       	rjmp	.-522    	; 0x1b42 <main+0x14e>
		
		
		
	}
	
	RC16M128_Servo_put( 0, 16, stand); //
    1d4c:	40 e9       	ldi	r20, 0x90	; 144
    1d4e:	54 e0       	ldi	r21, 0x04	; 4
    1d50:	60 e1       	ldi	r22, 0x10	; 16
    1d52:	80 e0       	ldi	r24, 0x00	; 0
    1d54:	52 d0       	rcall	.+164    	; 0x1dfa <RC16M128_Servo_put>
	


}
    1d56:	80 e0       	ldi	r24, 0x00	; 0
    1d58:	90 e0       	ldi	r25, 0x00	; 0
    1d5a:	a2 96       	adiw	r28, 0x22	; 34
    1d5c:	0f b6       	in	r0, 0x3f	; 63
    1d5e:	f8 94       	cli
    1d60:	de bf       	out	0x3e, r29	; 62
    1d62:	0f be       	out	0x3f, r0	; 63
    1d64:	cd bf       	out	0x3d, r28	; 61
    1d66:	df 91       	pop	r29
    1d68:	cf 91       	pop	r28
    1d6a:	1f 91       	pop	r17
    1d6c:	0f 91       	pop	r16
    1d6e:	ff 90       	pop	r15
    1d70:	ef 90       	pop	r14
    1d72:	df 90       	pop	r13
    1d74:	bf 90       	pop	r11
    1d76:	af 90       	pop	r10
    1d78:	9f 90       	pop	r9
    1d7a:	8f 90       	pop	r8
    1d7c:	7f 90       	pop	r7
    1d7e:	6f 90       	pop	r6
    1d80:	5f 90       	pop	r5
    1d82:	4f 90       	pop	r4
    1d84:	3f 90       	pop	r3
    1d86:	2f 90       	pop	r2
    1d88:	08 95       	ret

00001d8a <BasicTimer_Init>:
			((char*)Data_p)[0] = ServoDDRL;
		}
	}

	return 0;
}
    1d8a:	cf 93       	push	r28
    1d8c:	df 93       	push	r29
    1d8e:	00 d0       	rcall	.+0      	; 0x1d90 <BasicTimer_Init+0x6>
    1d90:	cd b7       	in	r28, 0x3d	; 61
    1d92:	de b7       	in	r29, 0x3e	; 62
    1d94:	21 e0       	ldi	r18, 0x01	; 1
    1d96:	40 e0       	ldi	r20, 0x00	; 0
    1d98:	67 e0       	ldi	r22, 0x07	; 7
    1d9a:	8a e8       	ldi	r24, 0x8A	; 138
    1d9c:	90 e0       	ldi	r25, 0x00	; 0
    1d9e:	0e 94 f6 04 	call	0x9ec	; 0x9ec <PWM_fpt>
    1da2:	20 e0       	ldi	r18, 0x00	; 0
    1da4:	40 e0       	ldi	r20, 0x00	; 0
    1da6:	63 e0       	ldi	r22, 0x03	; 3
    1da8:	8b e8       	ldi	r24, 0x8B	; 139
    1daa:	90 e0       	ldi	r25, 0x00	; 0
    1dac:	0e 94 f6 04 	call	0x9ec	; 0x9ec <PWM_fpt>
    1db0:	21 e0       	ldi	r18, 0x01	; 1
    1db2:	43 e0       	ldi	r20, 0x03	; 3
    1db4:	68 e1       	ldi	r22, 0x18	; 24
    1db6:	8a e8       	ldi	r24, 0x8A	; 138
    1db8:	90 e0       	ldi	r25, 0x00	; 0
    1dba:	0e 94 f6 04 	call	0x9ec	; 0x9ec <PWM_fpt>
    1dbe:	21 e0       	ldi	r18, 0x01	; 1
    1dc0:	44 e0       	ldi	r20, 0x04	; 4
    1dc2:	60 e1       	ldi	r22, 0x10	; 16
    1dc4:	8d e7       	ldi	r24, 0x7D	; 125
    1dc6:	90 e0       	ldi	r25, 0x00	; 0
    1dc8:	0e 94 f6 04 	call	0x9ec	; 0x9ec <PWM_fpt>
    1dcc:	85 ef       	ldi	r24, 0xF5	; 245
    1dce:	90 e0       	ldi	r25, 0x00	; 0
    1dd0:	9a 83       	std	Y+2, r25	; 0x02
    1dd2:	89 83       	std	Y+1, r24	; 0x01
    1dd4:	ae 01       	movw	r20, r28
    1dd6:	4f 5f       	subi	r20, 0xFF	; 255
    1dd8:	5f 4f       	sbci	r21, 0xFF	; 255
    1dda:	62 e0       	ldi	r22, 0x02	; 2
    1ddc:	86 e8       	ldi	r24, 0x86	; 134
    1dde:	90 e0       	ldi	r25, 0x00	; 0
    1de0:	0e 94 86 05 	call	0xb0c	; 0xb0c <PWM_get>
    1de4:	0f 90       	pop	r0
    1de6:	0f 90       	pop	r0
    1de8:	df 91       	pop	r29
    1dea:	cf 91       	pop	r28
    1dec:	08 95       	ret

00001dee <RC16M128_Servo_Init>:
    1dee:	cd df       	rcall	.-102    	; 0x1d8a <BasicTimer_Init>
    1df0:	1a ba       	out	0x1a, r1	; 26
    1df2:	1b ba       	out	0x1b, r1	; 27
    1df4:	14 ba       	out	0x14, r1	; 20
    1df6:	15 ba       	out	0x15, r1	; 21
    1df8:	08 95       	ret

00001dfa <RC16M128_Servo_put>:
    1dfa:	80 31       	cpi	r24, 0x10	; 16
    1dfc:	10 f5       	brcc	.+68     	; 0x1e42 <RC16M128_Servo_put+0x48>
    1dfe:	26 2f       	mov	r18, r22
    1e00:	30 e0       	ldi	r19, 0x00	; 0
    1e02:	28 0f       	add	r18, r24
    1e04:	31 1d       	adc	r19, r1
    1e06:	21 50       	subi	r18, 0x01	; 1
    1e08:	31 09       	sbc	r19, r1
    1e0a:	20 31       	cpi	r18, 0x10	; 16
    1e0c:	31 05       	cpc	r19, r1
    1e0e:	d8 f4       	brcc	.+54     	; 0x1e46 <RC16M128_Servo_put+0x4c>
    1e10:	66 23       	and	r22, r22
    1e12:	d9 f0       	breq	.+54     	; 0x1e4a <RC16M128_Servo_put+0x50>
    1e14:	61 50       	subi	r22, 0x01	; 1
    1e16:	26 2f       	mov	r18, r22
    1e18:	30 e0       	ldi	r19, 0x00	; 0
    1e1a:	2f 5f       	subi	r18, 0xFF	; 255
    1e1c:	3f 4f       	sbci	r19, 0xFF	; 255
    1e1e:	24 0f       	add	r18, r20
    1e20:	35 1f       	adc	r19, r21
    1e22:	fa 01       	movw	r30, r20
    1e24:	90 e0       	ldi	r25, 0x00	; 0
    1e26:	84 1b       	sub	r24, r20
    1e28:	95 0b       	sbc	r25, r21
    1e2a:	dc 01       	movw	r26, r24
    1e2c:	ae 0f       	add	r26, r30
    1e2e:	bf 1f       	adc	r27, r31
    1e30:	41 91       	ld	r20, Z+
    1e32:	a2 50       	subi	r26, 0x02	; 2
    1e34:	bd 4f       	sbci	r27, 0xFD	; 253
    1e36:	4c 93       	st	X, r20
    1e38:	e2 17       	cp	r30, r18
    1e3a:	f3 07       	cpc	r31, r19
    1e3c:	b1 f7       	brne	.-20     	; 0x1e2a <RC16M128_Servo_put+0x30>
    1e3e:	80 e0       	ldi	r24, 0x00	; 0
    1e40:	08 95       	ret
    1e42:	81 e0       	ldi	r24, 0x01	; 1
    1e44:	08 95       	ret
    1e46:	82 e0       	ldi	r24, 0x02	; 2
    1e48:	08 95       	ret
    1e4a:	80 e0       	ldi	r24, 0x00	; 0
    1e4c:	08 95       	ret

00001e4e <RC16M128_Servo_set>:
char RC16M128_Servo_set(char LSByte, char Mask, char shift, char Data)
{
	char set_Data=0;

	// 
	if( shift > 7 || shift < 0 )
    1e4e:	48 30       	cpi	r20, 0x08	; 8
    1e50:	f0 f4       	brcc	.+60     	; 0x1e8e <RC16M128_Servo_set+0x40>
	return 2;

	// 
	if( LSByte == 200 )
    1e52:	88 3c       	cpi	r24, 0xC8	; 200
    1e54:	69 f4       	brne	.+26     	; 0x1e70 <RC16M128_Servo_set+0x22>
	{
		set_Data = ServoDDRL;
    1e56:	8a b3       	in	r24, 0x1a	; 26
		set_Data = (set_Data & (~Mask)) | ((Data<<shift) & Mask);
    1e58:	30 e0       	ldi	r19, 0x00	; 0
    1e5a:	02 c0       	rjmp	.+4      	; 0x1e60 <RC16M128_Servo_set+0x12>
    1e5c:	22 0f       	add	r18, r18
    1e5e:	33 1f       	adc	r19, r19
    1e60:	4a 95       	dec	r20
    1e62:	e2 f7       	brpl	.-8      	; 0x1e5c <RC16M128_Servo_set+0xe>
    1e64:	28 27       	eor	r18, r24
    1e66:	26 23       	and	r18, r22
    1e68:	28 27       	eor	r18, r24
		ServoDDRL = set_Data;
    1e6a:	2a bb       	out	0x1a, r18	; 26
		ServoDDRH = set_Data;
	}
	else
	return 1;

	return 0;
    1e6c:	80 e0       	ldi	r24, 0x00	; 0
    1e6e:	08 95       	ret
	{
		set_Data = ServoDDRL;
		set_Data = (set_Data & (~Mask)) | ((Data<<shift) & Mask);
		ServoDDRL = set_Data;
	}
	else if( LSByte == 201 )
    1e70:	89 3c       	cpi	r24, 0xC9	; 201
    1e72:	79 f4       	brne	.+30     	; 0x1e92 <RC16M128_Servo_set+0x44>
	{
		set_Data = ServoDDRH;
    1e74:	84 b3       	in	r24, 0x14	; 20
		set_Data = (set_Data & (~Mask)) | ((Data<<shift) & Mask);
    1e76:	30 e0       	ldi	r19, 0x00	; 0
    1e78:	02 c0       	rjmp	.+4      	; 0x1e7e <RC16M128_Servo_set+0x30>
    1e7a:	22 0f       	add	r18, r18
    1e7c:	33 1f       	adc	r19, r19
    1e7e:	4a 95       	dec	r20
    1e80:	e2 f7       	brpl	.-8      	; 0x1e7a <RC16M128_Servo_set+0x2c>
    1e82:	28 27       	eor	r18, r24
    1e84:	26 23       	and	r18, r22
    1e86:	28 27       	eor	r18, r24
		ServoDDRH = set_Data;
    1e88:	24 bb       	out	0x14, r18	; 20
	}
	else
	return 1;

	return 0;
    1e8a:	80 e0       	ldi	r24, 0x00	; 0
    1e8c:	08 95       	ret
{
	char set_Data=0;

	// 
	if( shift > 7 || shift < 0 )
	return 2;
    1e8e:	82 e0       	ldi	r24, 0x02	; 2
    1e90:	08 95       	ret
		set_Data = ServoDDRH;
		set_Data = (set_Data & (~Mask)) | ((Data<<shift) & Mask);
		ServoDDRH = set_Data;
	}
	else
	return 1;
    1e92:	81 e0       	ldi	r24, 0x01	; 1

	return 0;
}
    1e94:	08 95       	ret

00001e96 <ASA_RC16M128_set>:

char ASA_RC16M128_set(void)
{
	char Result = 0;
	RC16M128_Servo_Init();
    1e96:	ab df       	rcall	.-170    	; 0x1dee <RC16M128_Servo_Init>
	sei();
    1e98:	78 94       	sei
	
	return Result;
}
    1e9a:	80 e0       	ldi	r24, 0x00	; 0
    1e9c:	08 95       	ret

00001e9e <TIMER3_COMPA_vect_routine>:
	// 2: ServoPeriodCount	0~1199
	// ServoBasePeriod: 1200 = PWM one Wave(2) Frequency: 50Hz(20ms)
	int CountTemp;
	
	// Low
	CountTemp = ServoPeriodCount-22;	// Shift 0.5ms
    1e9e:	80 91 c0 04 	lds	r24, 0x04C0	; 0x8004c0 <ServoPeriodCount>
    1ea2:	90 91 c1 04 	lds	r25, 0x04C1	; 0x8004c1 <ServoPeriodCount+0x1>
    1ea6:	46 97       	sbiw	r24, 0x16	; 22

	if( CountTemp <= 90)
    1ea8:	8b 35       	cpi	r24, 0x5B	; 91
    1eaa:	91 05       	cpc	r25, r1
    1eac:	0c f0       	brlt	.+2      	; 0x1eb0 <TIMER3_COMPA_vect_routine+0x12>
    1eae:	90 c0       	rjmp	.+288    	; 0x1fd0 <TIMER3_COMPA_vect_routine+0x132>
	{
		if( CountTemp == ServoCommand[0] )
    1eb0:	20 91 fe 02 	lds	r18, 0x02FE	; 0x8002fe <ServoCommand>
    1eb4:	30 e0       	ldi	r19, 0x00	; 0
    1eb6:	82 17       	cp	r24, r18
    1eb8:	93 07       	cpc	r25, r19
    1eba:	19 f4       	brne	.+6      	; 0x1ec2 <TIMER3_COMPA_vect_routine+0x24>
		ServoPORTL -= 1;
    1ebc:	2b b3       	in	r18, 0x1b	; 27
    1ebe:	21 50       	subi	r18, 0x01	; 1
    1ec0:	2b bb       	out	0x1b, r18	; 27
		if( CountTemp == ServoCommand[1] )
    1ec2:	20 91 ff 02 	lds	r18, 0x02FF	; 0x8002ff <ServoCommand+0x1>
    1ec6:	30 e0       	ldi	r19, 0x00	; 0
    1ec8:	82 17       	cp	r24, r18
    1eca:	93 07       	cpc	r25, r19
    1ecc:	19 f4       	brne	.+6      	; 0x1ed4 <TIMER3_COMPA_vect_routine+0x36>
		ServoPORTL -= 2;
    1ece:	2b b3       	in	r18, 0x1b	; 27
    1ed0:	22 50       	subi	r18, 0x02	; 2
    1ed2:	2b bb       	out	0x1b, r18	; 27
		if( CountTemp == ServoCommand[2] )
    1ed4:	20 91 00 03 	lds	r18, 0x0300	; 0x800300 <ServoCommand+0x2>
    1ed8:	30 e0       	ldi	r19, 0x00	; 0
    1eda:	82 17       	cp	r24, r18
    1edc:	93 07       	cpc	r25, r19
    1ede:	19 f4       	brne	.+6      	; 0x1ee6 <TIMER3_COMPA_vect_routine+0x48>
		ServoPORTL -= 4;
    1ee0:	2b b3       	in	r18, 0x1b	; 27
    1ee2:	24 50       	subi	r18, 0x04	; 4
    1ee4:	2b bb       	out	0x1b, r18	; 27
		if( CountTemp == ServoCommand[3] )
    1ee6:	20 91 01 03 	lds	r18, 0x0301	; 0x800301 <ServoCommand+0x3>
    1eea:	30 e0       	ldi	r19, 0x00	; 0
    1eec:	82 17       	cp	r24, r18
    1eee:	93 07       	cpc	r25, r19
    1ef0:	19 f4       	brne	.+6      	; 0x1ef8 <TIMER3_COMPA_vect_routine+0x5a>
		ServoPORTL -= 8;
    1ef2:	2b b3       	in	r18, 0x1b	; 27
    1ef4:	28 50       	subi	r18, 0x08	; 8
    1ef6:	2b bb       	out	0x1b, r18	; 27
		if( CountTemp == ServoCommand[4] )
    1ef8:	20 91 02 03 	lds	r18, 0x0302	; 0x800302 <ServoCommand+0x4>
    1efc:	30 e0       	ldi	r19, 0x00	; 0
    1efe:	82 17       	cp	r24, r18
    1f00:	93 07       	cpc	r25, r19
    1f02:	19 f4       	brne	.+6      	; 0x1f0a <TIMER3_COMPA_vect_routine+0x6c>
		ServoPORTL -= 16;
    1f04:	2b b3       	in	r18, 0x1b	; 27
    1f06:	20 51       	subi	r18, 0x10	; 16
    1f08:	2b bb       	out	0x1b, r18	; 27
		if( CountTemp == ServoCommand[5] )
    1f0a:	20 91 03 03 	lds	r18, 0x0303	; 0x800303 <ServoCommand+0x5>
    1f0e:	30 e0       	ldi	r19, 0x00	; 0
    1f10:	82 17       	cp	r24, r18
    1f12:	93 07       	cpc	r25, r19
    1f14:	19 f4       	brne	.+6      	; 0x1f1c <TIMER3_COMPA_vect_routine+0x7e>
		ServoPORTL -= 32;
    1f16:	2b b3       	in	r18, 0x1b	; 27
    1f18:	20 52       	subi	r18, 0x20	; 32
    1f1a:	2b bb       	out	0x1b, r18	; 27
		if( CountTemp == ServoCommand[6] )
    1f1c:	20 91 04 03 	lds	r18, 0x0304	; 0x800304 <ServoCommand+0x6>
    1f20:	30 e0       	ldi	r19, 0x00	; 0
    1f22:	82 17       	cp	r24, r18
    1f24:	93 07       	cpc	r25, r19
    1f26:	19 f4       	brne	.+6      	; 0x1f2e <TIMER3_COMPA_vect_routine+0x90>
		ServoPORTL -= 64;
    1f28:	2b b3       	in	r18, 0x1b	; 27
    1f2a:	20 54       	subi	r18, 0x40	; 64
    1f2c:	2b bb       	out	0x1b, r18	; 27
		if( CountTemp == ServoCommand[7] )
    1f2e:	20 91 05 03 	lds	r18, 0x0305	; 0x800305 <ServoCommand+0x7>
    1f32:	30 e0       	ldi	r19, 0x00	; 0
    1f34:	82 17       	cp	r24, r18
    1f36:	93 07       	cpc	r25, r19
    1f38:	19 f4       	brne	.+6      	; 0x1f40 <TIMER3_COMPA_vect_routine+0xa2>
		ServoPORTL -= 128;
    1f3a:	2b b3       	in	r18, 0x1b	; 27
    1f3c:	20 58       	subi	r18, 0x80	; 128
    1f3e:	2b bb       	out	0x1b, r18	; 27
		if( CountTemp == ServoCommand[8] )
    1f40:	20 91 06 03 	lds	r18, 0x0306	; 0x800306 <ServoCommand+0x8>
    1f44:	30 e0       	ldi	r19, 0x00	; 0
    1f46:	82 17       	cp	r24, r18
    1f48:	93 07       	cpc	r25, r19
    1f4a:	19 f4       	brne	.+6      	; 0x1f52 <TIMER3_COMPA_vect_routine+0xb4>
		ServoPORTH -= 1;
    1f4c:	25 b3       	in	r18, 0x15	; 21
    1f4e:	21 50       	subi	r18, 0x01	; 1
    1f50:	25 bb       	out	0x15, r18	; 21
		if( CountTemp == ServoCommand[9] )
    1f52:	20 91 07 03 	lds	r18, 0x0307	; 0x800307 <ServoCommand+0x9>
    1f56:	30 e0       	ldi	r19, 0x00	; 0
    1f58:	82 17       	cp	r24, r18
    1f5a:	93 07       	cpc	r25, r19
    1f5c:	19 f4       	brne	.+6      	; 0x1f64 <TIMER3_COMPA_vect_routine+0xc6>
		ServoPORTH -= 2;
    1f5e:	25 b3       	in	r18, 0x15	; 21
    1f60:	22 50       	subi	r18, 0x02	; 2
    1f62:	25 bb       	out	0x15, r18	; 21
		if( CountTemp == ServoCommand[10] )
    1f64:	20 91 08 03 	lds	r18, 0x0308	; 0x800308 <ServoCommand+0xa>
    1f68:	30 e0       	ldi	r19, 0x00	; 0
    1f6a:	82 17       	cp	r24, r18
    1f6c:	93 07       	cpc	r25, r19
    1f6e:	19 f4       	brne	.+6      	; 0x1f76 <TIMER3_COMPA_vect_routine+0xd8>
		ServoPORTH -= 4;
    1f70:	25 b3       	in	r18, 0x15	; 21
    1f72:	24 50       	subi	r18, 0x04	; 4
    1f74:	25 bb       	out	0x15, r18	; 21
		if( CountTemp == ServoCommand[11] )
    1f76:	20 91 09 03 	lds	r18, 0x0309	; 0x800309 <ServoCommand+0xb>
    1f7a:	30 e0       	ldi	r19, 0x00	; 0
    1f7c:	82 17       	cp	r24, r18
    1f7e:	93 07       	cpc	r25, r19
    1f80:	19 f4       	brne	.+6      	; 0x1f88 <TIMER3_COMPA_vect_routine+0xea>
		ServoPORTH -= 8;
    1f82:	25 b3       	in	r18, 0x15	; 21
    1f84:	28 50       	subi	r18, 0x08	; 8
    1f86:	25 bb       	out	0x15, r18	; 21
		if( CountTemp == ServoCommand[12] )
    1f88:	20 91 0a 03 	lds	r18, 0x030A	; 0x80030a <ServoCommand+0xc>
    1f8c:	30 e0       	ldi	r19, 0x00	; 0
    1f8e:	82 17       	cp	r24, r18
    1f90:	93 07       	cpc	r25, r19
    1f92:	19 f4       	brne	.+6      	; 0x1f9a <TIMER3_COMPA_vect_routine+0xfc>
		ServoPORTH -= 16;
    1f94:	25 b3       	in	r18, 0x15	; 21
    1f96:	20 51       	subi	r18, 0x10	; 16
    1f98:	25 bb       	out	0x15, r18	; 21
		if( CountTemp == ServoCommand[13] )
    1f9a:	20 91 0b 03 	lds	r18, 0x030B	; 0x80030b <ServoCommand+0xd>
    1f9e:	30 e0       	ldi	r19, 0x00	; 0
    1fa0:	82 17       	cp	r24, r18
    1fa2:	93 07       	cpc	r25, r19
    1fa4:	19 f4       	brne	.+6      	; 0x1fac <TIMER3_COMPA_vect_routine+0x10e>
		ServoPORTH -= 32;
    1fa6:	25 b3       	in	r18, 0x15	; 21
    1fa8:	20 52       	subi	r18, 0x20	; 32
    1faa:	25 bb       	out	0x15, r18	; 21
		if( CountTemp == ServoCommand[14] )
    1fac:	20 91 0c 03 	lds	r18, 0x030C	; 0x80030c <ServoCommand+0xe>
    1fb0:	30 e0       	ldi	r19, 0x00	; 0
    1fb2:	82 17       	cp	r24, r18
    1fb4:	93 07       	cpc	r25, r19
    1fb6:	19 f4       	brne	.+6      	; 0x1fbe <TIMER3_COMPA_vect_routine+0x120>
		ServoPORTH -= 64;
    1fb8:	25 b3       	in	r18, 0x15	; 21
    1fba:	20 54       	subi	r18, 0x40	; 64
    1fbc:	25 bb       	out	0x15, r18	; 21
		if( CountTemp == ServoCommand[15] )
    1fbe:	20 91 0d 03 	lds	r18, 0x030D	; 0x80030d <ServoCommand+0xf>
    1fc2:	30 e0       	ldi	r19, 0x00	; 0
    1fc4:	82 17       	cp	r24, r18
    1fc6:	93 07       	cpc	r25, r19
    1fc8:	19 f4       	brne	.+6      	; 0x1fd0 <TIMER3_COMPA_vect_routine+0x132>
		ServoPORTH -= 128;
    1fca:	85 b3       	in	r24, 0x15	; 21
    1fcc:	80 58       	subi	r24, 0x80	; 128
    1fce:	85 bb       	out	0x15, r24	; 21
	}
	ServoPeriodCount++;
    1fd0:	80 91 c0 04 	lds	r24, 0x04C0	; 0x8004c0 <ServoPeriodCount>
    1fd4:	90 91 c1 04 	lds	r25, 0x04C1	; 0x8004c1 <ServoPeriodCount+0x1>
    1fd8:	01 96       	adiw	r24, 0x01	; 1
    1fda:	90 93 c1 04 	sts	0x04C1, r25	; 0x8004c1 <ServoPeriodCount+0x1>
    1fde:	80 93 c0 04 	sts	0x04C0, r24	; 0x8004c0 <ServoPeriodCount>
	// High
	if( ServoPeriodCount > ServoBasePeriod )
    1fe2:	80 91 c0 04 	lds	r24, 0x04C0	; 0x8004c0 <ServoPeriodCount>
    1fe6:	90 91 c1 04 	lds	r25, 0x04C1	; 0x8004c1 <ServoPeriodCount+0x1>
    1fea:	84 38       	cpi	r24, 0x84	; 132
    1fec:	93 40       	sbci	r25, 0x03	; 3
    1fee:	38 f0       	brcs	.+14     	; 0x1ffe <TIMER3_COMPA_vect_routine+0x160>
	{
		ServoPeriodCount = 0;
    1ff0:	10 92 c1 04 	sts	0x04C1, r1	; 0x8004c1 <ServoPeriodCount+0x1>
    1ff4:	10 92 c0 04 	sts	0x04C0, r1	; 0x8004c0 <ServoPeriodCount>
		ServoPORTL = 255;
    1ff8:	8f ef       	ldi	r24, 0xFF	; 255
    1ffa:	8b bb       	out	0x1b, r24	; 27
		ServoPORTH = 255;
    1ffc:	85 bb       	out	0x15, r24	; 21
    1ffe:	08 95       	ret

00002000 <__udivmodsi4>:
    2000:	a1 e2       	ldi	r26, 0x21	; 33
    2002:	1a 2e       	mov	r1, r26
    2004:	aa 1b       	sub	r26, r26
    2006:	bb 1b       	sub	r27, r27
    2008:	fd 01       	movw	r30, r26
    200a:	0d c0       	rjmp	.+26     	; 0x2026 <__udivmodsi4_ep>

0000200c <__udivmodsi4_loop>:
    200c:	aa 1f       	adc	r26, r26
    200e:	bb 1f       	adc	r27, r27
    2010:	ee 1f       	adc	r30, r30
    2012:	ff 1f       	adc	r31, r31
    2014:	a2 17       	cp	r26, r18
    2016:	b3 07       	cpc	r27, r19
    2018:	e4 07       	cpc	r30, r20
    201a:	f5 07       	cpc	r31, r21
    201c:	20 f0       	brcs	.+8      	; 0x2026 <__udivmodsi4_ep>
    201e:	a2 1b       	sub	r26, r18
    2020:	b3 0b       	sbc	r27, r19
    2022:	e4 0b       	sbc	r30, r20
    2024:	f5 0b       	sbc	r31, r21

00002026 <__udivmodsi4_ep>:
    2026:	66 1f       	adc	r22, r22
    2028:	77 1f       	adc	r23, r23
    202a:	88 1f       	adc	r24, r24
    202c:	99 1f       	adc	r25, r25
    202e:	1a 94       	dec	r1
    2030:	69 f7       	brne	.-38     	; 0x200c <__udivmodsi4_loop>
    2032:	60 95       	com	r22
    2034:	70 95       	com	r23
    2036:	80 95       	com	r24
    2038:	90 95       	com	r25
    203a:	9b 01       	movw	r18, r22
    203c:	ac 01       	movw	r20, r24
    203e:	bd 01       	movw	r22, r26
    2040:	cf 01       	movw	r24, r30
    2042:	08 95       	ret

00002044 <vfprintf>:
    2044:	2f 92       	push	r2
    2046:	3f 92       	push	r3
    2048:	4f 92       	push	r4
    204a:	5f 92       	push	r5
    204c:	6f 92       	push	r6
    204e:	7f 92       	push	r7
    2050:	8f 92       	push	r8
    2052:	9f 92       	push	r9
    2054:	af 92       	push	r10
    2056:	bf 92       	push	r11
    2058:	cf 92       	push	r12
    205a:	df 92       	push	r13
    205c:	ef 92       	push	r14
    205e:	ff 92       	push	r15
    2060:	0f 93       	push	r16
    2062:	1f 93       	push	r17
    2064:	cf 93       	push	r28
    2066:	df 93       	push	r29
    2068:	cd b7       	in	r28, 0x3d	; 61
    206a:	de b7       	in	r29, 0x3e	; 62
    206c:	2b 97       	sbiw	r28, 0x0b	; 11
    206e:	0f b6       	in	r0, 0x3f	; 63
    2070:	f8 94       	cli
    2072:	de bf       	out	0x3e, r29	; 62
    2074:	0f be       	out	0x3f, r0	; 63
    2076:	cd bf       	out	0x3d, r28	; 61
    2078:	6c 01       	movw	r12, r24
    207a:	7b 01       	movw	r14, r22
    207c:	8a 01       	movw	r16, r20
    207e:	fc 01       	movw	r30, r24
    2080:	17 82       	std	Z+7, r1	; 0x07
    2082:	16 82       	std	Z+6, r1	; 0x06
    2084:	83 81       	ldd	r24, Z+3	; 0x03
    2086:	81 ff       	sbrs	r24, 1
    2088:	bf c1       	rjmp	.+894    	; 0x2408 <vfprintf+0x3c4>
    208a:	ce 01       	movw	r24, r28
    208c:	01 96       	adiw	r24, 0x01	; 1
    208e:	3c 01       	movw	r6, r24
    2090:	f6 01       	movw	r30, r12
    2092:	93 81       	ldd	r25, Z+3	; 0x03
    2094:	f7 01       	movw	r30, r14
    2096:	93 fd       	sbrc	r25, 3
    2098:	85 91       	lpm	r24, Z+
    209a:	93 ff       	sbrs	r25, 3
    209c:	81 91       	ld	r24, Z+
    209e:	7f 01       	movw	r14, r30
    20a0:	88 23       	and	r24, r24
    20a2:	09 f4       	brne	.+2      	; 0x20a6 <vfprintf+0x62>
    20a4:	ad c1       	rjmp	.+858    	; 0x2400 <vfprintf+0x3bc>
    20a6:	85 32       	cpi	r24, 0x25	; 37
    20a8:	39 f4       	brne	.+14     	; 0x20b8 <vfprintf+0x74>
    20aa:	93 fd       	sbrc	r25, 3
    20ac:	85 91       	lpm	r24, Z+
    20ae:	93 ff       	sbrs	r25, 3
    20b0:	81 91       	ld	r24, Z+
    20b2:	7f 01       	movw	r14, r30
    20b4:	85 32       	cpi	r24, 0x25	; 37
    20b6:	21 f4       	brne	.+8      	; 0x20c0 <vfprintf+0x7c>
    20b8:	b6 01       	movw	r22, r12
    20ba:	90 e0       	ldi	r25, 0x00	; 0
    20bc:	f0 d4       	rcall	.+2528   	; 0x2a9e <fputc>
    20be:	e8 cf       	rjmp	.-48     	; 0x2090 <vfprintf+0x4c>
    20c0:	91 2c       	mov	r9, r1
    20c2:	21 2c       	mov	r2, r1
    20c4:	31 2c       	mov	r3, r1
    20c6:	ff e1       	ldi	r31, 0x1F	; 31
    20c8:	f3 15       	cp	r31, r3
    20ca:	d8 f0       	brcs	.+54     	; 0x2102 <vfprintf+0xbe>
    20cc:	8b 32       	cpi	r24, 0x2B	; 43
    20ce:	79 f0       	breq	.+30     	; 0x20ee <vfprintf+0xaa>
    20d0:	38 f4       	brcc	.+14     	; 0x20e0 <vfprintf+0x9c>
    20d2:	80 32       	cpi	r24, 0x20	; 32
    20d4:	79 f0       	breq	.+30     	; 0x20f4 <vfprintf+0xb0>
    20d6:	83 32       	cpi	r24, 0x23	; 35
    20d8:	a1 f4       	brne	.+40     	; 0x2102 <vfprintf+0xbe>
    20da:	23 2d       	mov	r18, r3
    20dc:	20 61       	ori	r18, 0x10	; 16
    20de:	1d c0       	rjmp	.+58     	; 0x211a <vfprintf+0xd6>
    20e0:	8d 32       	cpi	r24, 0x2D	; 45
    20e2:	61 f0       	breq	.+24     	; 0x20fc <vfprintf+0xb8>
    20e4:	80 33       	cpi	r24, 0x30	; 48
    20e6:	69 f4       	brne	.+26     	; 0x2102 <vfprintf+0xbe>
    20e8:	23 2d       	mov	r18, r3
    20ea:	21 60       	ori	r18, 0x01	; 1
    20ec:	16 c0       	rjmp	.+44     	; 0x211a <vfprintf+0xd6>
    20ee:	83 2d       	mov	r24, r3
    20f0:	82 60       	ori	r24, 0x02	; 2
    20f2:	38 2e       	mov	r3, r24
    20f4:	e3 2d       	mov	r30, r3
    20f6:	e4 60       	ori	r30, 0x04	; 4
    20f8:	3e 2e       	mov	r3, r30
    20fa:	2a c0       	rjmp	.+84     	; 0x2150 <vfprintf+0x10c>
    20fc:	f3 2d       	mov	r31, r3
    20fe:	f8 60       	ori	r31, 0x08	; 8
    2100:	1d c0       	rjmp	.+58     	; 0x213c <vfprintf+0xf8>
    2102:	37 fc       	sbrc	r3, 7
    2104:	2d c0       	rjmp	.+90     	; 0x2160 <vfprintf+0x11c>
    2106:	20 ed       	ldi	r18, 0xD0	; 208
    2108:	28 0f       	add	r18, r24
    210a:	2a 30       	cpi	r18, 0x0A	; 10
    210c:	40 f0       	brcs	.+16     	; 0x211e <vfprintf+0xda>
    210e:	8e 32       	cpi	r24, 0x2E	; 46
    2110:	b9 f4       	brne	.+46     	; 0x2140 <vfprintf+0xfc>
    2112:	36 fc       	sbrc	r3, 6
    2114:	75 c1       	rjmp	.+746    	; 0x2400 <vfprintf+0x3bc>
    2116:	23 2d       	mov	r18, r3
    2118:	20 64       	ori	r18, 0x40	; 64
    211a:	32 2e       	mov	r3, r18
    211c:	19 c0       	rjmp	.+50     	; 0x2150 <vfprintf+0x10c>
    211e:	36 fe       	sbrs	r3, 6
    2120:	06 c0       	rjmp	.+12     	; 0x212e <vfprintf+0xea>
    2122:	8a e0       	ldi	r24, 0x0A	; 10
    2124:	98 9e       	mul	r9, r24
    2126:	20 0d       	add	r18, r0
    2128:	11 24       	eor	r1, r1
    212a:	92 2e       	mov	r9, r18
    212c:	11 c0       	rjmp	.+34     	; 0x2150 <vfprintf+0x10c>
    212e:	ea e0       	ldi	r30, 0x0A	; 10
    2130:	2e 9e       	mul	r2, r30
    2132:	20 0d       	add	r18, r0
    2134:	11 24       	eor	r1, r1
    2136:	22 2e       	mov	r2, r18
    2138:	f3 2d       	mov	r31, r3
    213a:	f0 62       	ori	r31, 0x20	; 32
    213c:	3f 2e       	mov	r3, r31
    213e:	08 c0       	rjmp	.+16     	; 0x2150 <vfprintf+0x10c>
    2140:	8c 36       	cpi	r24, 0x6C	; 108
    2142:	21 f4       	brne	.+8      	; 0x214c <vfprintf+0x108>
    2144:	83 2d       	mov	r24, r3
    2146:	80 68       	ori	r24, 0x80	; 128
    2148:	38 2e       	mov	r3, r24
    214a:	02 c0       	rjmp	.+4      	; 0x2150 <vfprintf+0x10c>
    214c:	88 36       	cpi	r24, 0x68	; 104
    214e:	41 f4       	brne	.+16     	; 0x2160 <vfprintf+0x11c>
    2150:	f7 01       	movw	r30, r14
    2152:	93 fd       	sbrc	r25, 3
    2154:	85 91       	lpm	r24, Z+
    2156:	93 ff       	sbrs	r25, 3
    2158:	81 91       	ld	r24, Z+
    215a:	7f 01       	movw	r14, r30
    215c:	81 11       	cpse	r24, r1
    215e:	b3 cf       	rjmp	.-154    	; 0x20c6 <vfprintf+0x82>
    2160:	98 2f       	mov	r25, r24
    2162:	9f 7d       	andi	r25, 0xDF	; 223
    2164:	95 54       	subi	r25, 0x45	; 69
    2166:	93 30       	cpi	r25, 0x03	; 3
    2168:	28 f4       	brcc	.+10     	; 0x2174 <vfprintf+0x130>
    216a:	0c 5f       	subi	r16, 0xFC	; 252
    216c:	1f 4f       	sbci	r17, 0xFF	; 255
    216e:	9f e3       	ldi	r25, 0x3F	; 63
    2170:	99 83       	std	Y+1, r25	; 0x01
    2172:	0d c0       	rjmp	.+26     	; 0x218e <vfprintf+0x14a>
    2174:	83 36       	cpi	r24, 0x63	; 99
    2176:	31 f0       	breq	.+12     	; 0x2184 <vfprintf+0x140>
    2178:	83 37       	cpi	r24, 0x73	; 115
    217a:	71 f0       	breq	.+28     	; 0x2198 <vfprintf+0x154>
    217c:	83 35       	cpi	r24, 0x53	; 83
    217e:	09 f0       	breq	.+2      	; 0x2182 <vfprintf+0x13e>
    2180:	55 c0       	rjmp	.+170    	; 0x222c <vfprintf+0x1e8>
    2182:	20 c0       	rjmp	.+64     	; 0x21c4 <vfprintf+0x180>
    2184:	f8 01       	movw	r30, r16
    2186:	80 81       	ld	r24, Z
    2188:	89 83       	std	Y+1, r24	; 0x01
    218a:	0e 5f       	subi	r16, 0xFE	; 254
    218c:	1f 4f       	sbci	r17, 0xFF	; 255
    218e:	88 24       	eor	r8, r8
    2190:	83 94       	inc	r8
    2192:	91 2c       	mov	r9, r1
    2194:	53 01       	movw	r10, r6
    2196:	12 c0       	rjmp	.+36     	; 0x21bc <vfprintf+0x178>
    2198:	28 01       	movw	r4, r16
    219a:	f2 e0       	ldi	r31, 0x02	; 2
    219c:	4f 0e       	add	r4, r31
    219e:	51 1c       	adc	r5, r1
    21a0:	f8 01       	movw	r30, r16
    21a2:	a0 80       	ld	r10, Z
    21a4:	b1 80       	ldd	r11, Z+1	; 0x01
    21a6:	36 fe       	sbrs	r3, 6
    21a8:	03 c0       	rjmp	.+6      	; 0x21b0 <vfprintf+0x16c>
    21aa:	69 2d       	mov	r22, r9
    21ac:	70 e0       	ldi	r23, 0x00	; 0
    21ae:	02 c0       	rjmp	.+4      	; 0x21b4 <vfprintf+0x170>
    21b0:	6f ef       	ldi	r22, 0xFF	; 255
    21b2:	7f ef       	ldi	r23, 0xFF	; 255
    21b4:	c5 01       	movw	r24, r10
    21b6:	2a d4       	rcall	.+2132   	; 0x2a0c <strnlen>
    21b8:	4c 01       	movw	r8, r24
    21ba:	82 01       	movw	r16, r4
    21bc:	f3 2d       	mov	r31, r3
    21be:	ff 77       	andi	r31, 0x7F	; 127
    21c0:	3f 2e       	mov	r3, r31
    21c2:	15 c0       	rjmp	.+42     	; 0x21ee <vfprintf+0x1aa>
    21c4:	28 01       	movw	r4, r16
    21c6:	22 e0       	ldi	r18, 0x02	; 2
    21c8:	42 0e       	add	r4, r18
    21ca:	51 1c       	adc	r5, r1
    21cc:	f8 01       	movw	r30, r16
    21ce:	a0 80       	ld	r10, Z
    21d0:	b1 80       	ldd	r11, Z+1	; 0x01
    21d2:	36 fe       	sbrs	r3, 6
    21d4:	03 c0       	rjmp	.+6      	; 0x21dc <vfprintf+0x198>
    21d6:	69 2d       	mov	r22, r9
    21d8:	70 e0       	ldi	r23, 0x00	; 0
    21da:	02 c0       	rjmp	.+4      	; 0x21e0 <vfprintf+0x19c>
    21dc:	6f ef       	ldi	r22, 0xFF	; 255
    21de:	7f ef       	ldi	r23, 0xFF	; 255
    21e0:	c5 01       	movw	r24, r10
    21e2:	09 d4       	rcall	.+2066   	; 0x29f6 <strnlen_P>
    21e4:	4c 01       	movw	r8, r24
    21e6:	f3 2d       	mov	r31, r3
    21e8:	f0 68       	ori	r31, 0x80	; 128
    21ea:	3f 2e       	mov	r3, r31
    21ec:	82 01       	movw	r16, r4
    21ee:	33 fc       	sbrc	r3, 3
    21f0:	19 c0       	rjmp	.+50     	; 0x2224 <vfprintf+0x1e0>
    21f2:	82 2d       	mov	r24, r2
    21f4:	90 e0       	ldi	r25, 0x00	; 0
    21f6:	88 16       	cp	r8, r24
    21f8:	99 06       	cpc	r9, r25
    21fa:	a0 f4       	brcc	.+40     	; 0x2224 <vfprintf+0x1e0>
    21fc:	b6 01       	movw	r22, r12
    21fe:	80 e2       	ldi	r24, 0x20	; 32
    2200:	90 e0       	ldi	r25, 0x00	; 0
    2202:	4d d4       	rcall	.+2202   	; 0x2a9e <fputc>
    2204:	2a 94       	dec	r2
    2206:	f5 cf       	rjmp	.-22     	; 0x21f2 <vfprintf+0x1ae>
    2208:	f5 01       	movw	r30, r10
    220a:	37 fc       	sbrc	r3, 7
    220c:	85 91       	lpm	r24, Z+
    220e:	37 fe       	sbrs	r3, 7
    2210:	81 91       	ld	r24, Z+
    2212:	5f 01       	movw	r10, r30
    2214:	b6 01       	movw	r22, r12
    2216:	90 e0       	ldi	r25, 0x00	; 0
    2218:	42 d4       	rcall	.+2180   	; 0x2a9e <fputc>
    221a:	21 10       	cpse	r2, r1
    221c:	2a 94       	dec	r2
    221e:	21 e0       	ldi	r18, 0x01	; 1
    2220:	82 1a       	sub	r8, r18
    2222:	91 08       	sbc	r9, r1
    2224:	81 14       	cp	r8, r1
    2226:	91 04       	cpc	r9, r1
    2228:	79 f7       	brne	.-34     	; 0x2208 <vfprintf+0x1c4>
    222a:	e1 c0       	rjmp	.+450    	; 0x23ee <vfprintf+0x3aa>
    222c:	84 36       	cpi	r24, 0x64	; 100
    222e:	11 f0       	breq	.+4      	; 0x2234 <vfprintf+0x1f0>
    2230:	89 36       	cpi	r24, 0x69	; 105
    2232:	39 f5       	brne	.+78     	; 0x2282 <vfprintf+0x23e>
    2234:	f8 01       	movw	r30, r16
    2236:	37 fe       	sbrs	r3, 7
    2238:	07 c0       	rjmp	.+14     	; 0x2248 <vfprintf+0x204>
    223a:	60 81       	ld	r22, Z
    223c:	71 81       	ldd	r23, Z+1	; 0x01
    223e:	82 81       	ldd	r24, Z+2	; 0x02
    2240:	93 81       	ldd	r25, Z+3	; 0x03
    2242:	0c 5f       	subi	r16, 0xFC	; 252
    2244:	1f 4f       	sbci	r17, 0xFF	; 255
    2246:	08 c0       	rjmp	.+16     	; 0x2258 <vfprintf+0x214>
    2248:	60 81       	ld	r22, Z
    224a:	71 81       	ldd	r23, Z+1	; 0x01
    224c:	07 2e       	mov	r0, r23
    224e:	00 0c       	add	r0, r0
    2250:	88 0b       	sbc	r24, r24
    2252:	99 0b       	sbc	r25, r25
    2254:	0e 5f       	subi	r16, 0xFE	; 254
    2256:	1f 4f       	sbci	r17, 0xFF	; 255
    2258:	f3 2d       	mov	r31, r3
    225a:	ff 76       	andi	r31, 0x6F	; 111
    225c:	3f 2e       	mov	r3, r31
    225e:	97 ff       	sbrs	r25, 7
    2260:	09 c0       	rjmp	.+18     	; 0x2274 <vfprintf+0x230>
    2262:	90 95       	com	r25
    2264:	80 95       	com	r24
    2266:	70 95       	com	r23
    2268:	61 95       	neg	r22
    226a:	7f 4f       	sbci	r23, 0xFF	; 255
    226c:	8f 4f       	sbci	r24, 0xFF	; 255
    226e:	9f 4f       	sbci	r25, 0xFF	; 255
    2270:	f0 68       	ori	r31, 0x80	; 128
    2272:	3f 2e       	mov	r3, r31
    2274:	2a e0       	ldi	r18, 0x0A	; 10
    2276:	30 e0       	ldi	r19, 0x00	; 0
    2278:	a3 01       	movw	r20, r6
    227a:	66 d4       	rcall	.+2252   	; 0x2b48 <__ultoa_invert>
    227c:	88 2e       	mov	r8, r24
    227e:	86 18       	sub	r8, r6
    2280:	44 c0       	rjmp	.+136    	; 0x230a <vfprintf+0x2c6>
    2282:	85 37       	cpi	r24, 0x75	; 117
    2284:	31 f4       	brne	.+12     	; 0x2292 <vfprintf+0x24e>
    2286:	23 2d       	mov	r18, r3
    2288:	2f 7e       	andi	r18, 0xEF	; 239
    228a:	b2 2e       	mov	r11, r18
    228c:	2a e0       	ldi	r18, 0x0A	; 10
    228e:	30 e0       	ldi	r19, 0x00	; 0
    2290:	25 c0       	rjmp	.+74     	; 0x22dc <vfprintf+0x298>
    2292:	93 2d       	mov	r25, r3
    2294:	99 7f       	andi	r25, 0xF9	; 249
    2296:	b9 2e       	mov	r11, r25
    2298:	8f 36       	cpi	r24, 0x6F	; 111
    229a:	c1 f0       	breq	.+48     	; 0x22cc <vfprintf+0x288>
    229c:	18 f4       	brcc	.+6      	; 0x22a4 <vfprintf+0x260>
    229e:	88 35       	cpi	r24, 0x58	; 88
    22a0:	79 f0       	breq	.+30     	; 0x22c0 <vfprintf+0x27c>
    22a2:	ae c0       	rjmp	.+348    	; 0x2400 <vfprintf+0x3bc>
    22a4:	80 37       	cpi	r24, 0x70	; 112
    22a6:	19 f0       	breq	.+6      	; 0x22ae <vfprintf+0x26a>
    22a8:	88 37       	cpi	r24, 0x78	; 120
    22aa:	21 f0       	breq	.+8      	; 0x22b4 <vfprintf+0x270>
    22ac:	a9 c0       	rjmp	.+338    	; 0x2400 <vfprintf+0x3bc>
    22ae:	e9 2f       	mov	r30, r25
    22b0:	e0 61       	ori	r30, 0x10	; 16
    22b2:	be 2e       	mov	r11, r30
    22b4:	b4 fe       	sbrs	r11, 4
    22b6:	0d c0       	rjmp	.+26     	; 0x22d2 <vfprintf+0x28e>
    22b8:	fb 2d       	mov	r31, r11
    22ba:	f4 60       	ori	r31, 0x04	; 4
    22bc:	bf 2e       	mov	r11, r31
    22be:	09 c0       	rjmp	.+18     	; 0x22d2 <vfprintf+0x28e>
    22c0:	34 fe       	sbrs	r3, 4
    22c2:	0a c0       	rjmp	.+20     	; 0x22d8 <vfprintf+0x294>
    22c4:	29 2f       	mov	r18, r25
    22c6:	26 60       	ori	r18, 0x06	; 6
    22c8:	b2 2e       	mov	r11, r18
    22ca:	06 c0       	rjmp	.+12     	; 0x22d8 <vfprintf+0x294>
    22cc:	28 e0       	ldi	r18, 0x08	; 8
    22ce:	30 e0       	ldi	r19, 0x00	; 0
    22d0:	05 c0       	rjmp	.+10     	; 0x22dc <vfprintf+0x298>
    22d2:	20 e1       	ldi	r18, 0x10	; 16
    22d4:	30 e0       	ldi	r19, 0x00	; 0
    22d6:	02 c0       	rjmp	.+4      	; 0x22dc <vfprintf+0x298>
    22d8:	20 e1       	ldi	r18, 0x10	; 16
    22da:	32 e0       	ldi	r19, 0x02	; 2
    22dc:	f8 01       	movw	r30, r16
    22de:	b7 fe       	sbrs	r11, 7
    22e0:	07 c0       	rjmp	.+14     	; 0x22f0 <vfprintf+0x2ac>
    22e2:	60 81       	ld	r22, Z
    22e4:	71 81       	ldd	r23, Z+1	; 0x01
    22e6:	82 81       	ldd	r24, Z+2	; 0x02
    22e8:	93 81       	ldd	r25, Z+3	; 0x03
    22ea:	0c 5f       	subi	r16, 0xFC	; 252
    22ec:	1f 4f       	sbci	r17, 0xFF	; 255
    22ee:	06 c0       	rjmp	.+12     	; 0x22fc <vfprintf+0x2b8>
    22f0:	60 81       	ld	r22, Z
    22f2:	71 81       	ldd	r23, Z+1	; 0x01
    22f4:	80 e0       	ldi	r24, 0x00	; 0
    22f6:	90 e0       	ldi	r25, 0x00	; 0
    22f8:	0e 5f       	subi	r16, 0xFE	; 254
    22fa:	1f 4f       	sbci	r17, 0xFF	; 255
    22fc:	a3 01       	movw	r20, r6
    22fe:	24 d4       	rcall	.+2120   	; 0x2b48 <__ultoa_invert>
    2300:	88 2e       	mov	r8, r24
    2302:	86 18       	sub	r8, r6
    2304:	fb 2d       	mov	r31, r11
    2306:	ff 77       	andi	r31, 0x7F	; 127
    2308:	3f 2e       	mov	r3, r31
    230a:	36 fe       	sbrs	r3, 6
    230c:	0d c0       	rjmp	.+26     	; 0x2328 <vfprintf+0x2e4>
    230e:	23 2d       	mov	r18, r3
    2310:	2e 7f       	andi	r18, 0xFE	; 254
    2312:	a2 2e       	mov	r10, r18
    2314:	89 14       	cp	r8, r9
    2316:	58 f4       	brcc	.+22     	; 0x232e <vfprintf+0x2ea>
    2318:	34 fe       	sbrs	r3, 4
    231a:	0b c0       	rjmp	.+22     	; 0x2332 <vfprintf+0x2ee>
    231c:	32 fc       	sbrc	r3, 2
    231e:	09 c0       	rjmp	.+18     	; 0x2332 <vfprintf+0x2ee>
    2320:	83 2d       	mov	r24, r3
    2322:	8e 7e       	andi	r24, 0xEE	; 238
    2324:	a8 2e       	mov	r10, r24
    2326:	05 c0       	rjmp	.+10     	; 0x2332 <vfprintf+0x2ee>
    2328:	b8 2c       	mov	r11, r8
    232a:	a3 2c       	mov	r10, r3
    232c:	03 c0       	rjmp	.+6      	; 0x2334 <vfprintf+0x2f0>
    232e:	b8 2c       	mov	r11, r8
    2330:	01 c0       	rjmp	.+2      	; 0x2334 <vfprintf+0x2f0>
    2332:	b9 2c       	mov	r11, r9
    2334:	a4 fe       	sbrs	r10, 4
    2336:	0f c0       	rjmp	.+30     	; 0x2356 <vfprintf+0x312>
    2338:	fe 01       	movw	r30, r28
    233a:	e8 0d       	add	r30, r8
    233c:	f1 1d       	adc	r31, r1
    233e:	80 81       	ld	r24, Z
    2340:	80 33       	cpi	r24, 0x30	; 48
    2342:	21 f4       	brne	.+8      	; 0x234c <vfprintf+0x308>
    2344:	9a 2d       	mov	r25, r10
    2346:	99 7e       	andi	r25, 0xE9	; 233
    2348:	a9 2e       	mov	r10, r25
    234a:	09 c0       	rjmp	.+18     	; 0x235e <vfprintf+0x31a>
    234c:	a2 fe       	sbrs	r10, 2
    234e:	06 c0       	rjmp	.+12     	; 0x235c <vfprintf+0x318>
    2350:	b3 94       	inc	r11
    2352:	b3 94       	inc	r11
    2354:	04 c0       	rjmp	.+8      	; 0x235e <vfprintf+0x31a>
    2356:	8a 2d       	mov	r24, r10
    2358:	86 78       	andi	r24, 0x86	; 134
    235a:	09 f0       	breq	.+2      	; 0x235e <vfprintf+0x31a>
    235c:	b3 94       	inc	r11
    235e:	a3 fc       	sbrc	r10, 3
    2360:	10 c0       	rjmp	.+32     	; 0x2382 <vfprintf+0x33e>
    2362:	a0 fe       	sbrs	r10, 0
    2364:	06 c0       	rjmp	.+12     	; 0x2372 <vfprintf+0x32e>
    2366:	b2 14       	cp	r11, r2
    2368:	80 f4       	brcc	.+32     	; 0x238a <vfprintf+0x346>
    236a:	28 0c       	add	r2, r8
    236c:	92 2c       	mov	r9, r2
    236e:	9b 18       	sub	r9, r11
    2370:	0d c0       	rjmp	.+26     	; 0x238c <vfprintf+0x348>
    2372:	b2 14       	cp	r11, r2
    2374:	58 f4       	brcc	.+22     	; 0x238c <vfprintf+0x348>
    2376:	b6 01       	movw	r22, r12
    2378:	80 e2       	ldi	r24, 0x20	; 32
    237a:	90 e0       	ldi	r25, 0x00	; 0
    237c:	90 d3       	rcall	.+1824   	; 0x2a9e <fputc>
    237e:	b3 94       	inc	r11
    2380:	f8 cf       	rjmp	.-16     	; 0x2372 <vfprintf+0x32e>
    2382:	b2 14       	cp	r11, r2
    2384:	18 f4       	brcc	.+6      	; 0x238c <vfprintf+0x348>
    2386:	2b 18       	sub	r2, r11
    2388:	02 c0       	rjmp	.+4      	; 0x238e <vfprintf+0x34a>
    238a:	98 2c       	mov	r9, r8
    238c:	21 2c       	mov	r2, r1
    238e:	a4 fe       	sbrs	r10, 4
    2390:	0f c0       	rjmp	.+30     	; 0x23b0 <vfprintf+0x36c>
    2392:	b6 01       	movw	r22, r12
    2394:	80 e3       	ldi	r24, 0x30	; 48
    2396:	90 e0       	ldi	r25, 0x00	; 0
    2398:	82 d3       	rcall	.+1796   	; 0x2a9e <fputc>
    239a:	a2 fe       	sbrs	r10, 2
    239c:	16 c0       	rjmp	.+44     	; 0x23ca <vfprintf+0x386>
    239e:	a1 fc       	sbrc	r10, 1
    23a0:	03 c0       	rjmp	.+6      	; 0x23a8 <vfprintf+0x364>
    23a2:	88 e7       	ldi	r24, 0x78	; 120
    23a4:	90 e0       	ldi	r25, 0x00	; 0
    23a6:	02 c0       	rjmp	.+4      	; 0x23ac <vfprintf+0x368>
    23a8:	88 e5       	ldi	r24, 0x58	; 88
    23aa:	90 e0       	ldi	r25, 0x00	; 0
    23ac:	b6 01       	movw	r22, r12
    23ae:	0c c0       	rjmp	.+24     	; 0x23c8 <vfprintf+0x384>
    23b0:	8a 2d       	mov	r24, r10
    23b2:	86 78       	andi	r24, 0x86	; 134
    23b4:	51 f0       	breq	.+20     	; 0x23ca <vfprintf+0x386>
    23b6:	a1 fe       	sbrs	r10, 1
    23b8:	02 c0       	rjmp	.+4      	; 0x23be <vfprintf+0x37a>
    23ba:	8b e2       	ldi	r24, 0x2B	; 43
    23bc:	01 c0       	rjmp	.+2      	; 0x23c0 <vfprintf+0x37c>
    23be:	80 e2       	ldi	r24, 0x20	; 32
    23c0:	a7 fc       	sbrc	r10, 7
    23c2:	8d e2       	ldi	r24, 0x2D	; 45
    23c4:	b6 01       	movw	r22, r12
    23c6:	90 e0       	ldi	r25, 0x00	; 0
    23c8:	6a d3       	rcall	.+1748   	; 0x2a9e <fputc>
    23ca:	89 14       	cp	r8, r9
    23cc:	30 f4       	brcc	.+12     	; 0x23da <vfprintf+0x396>
    23ce:	b6 01       	movw	r22, r12
    23d0:	80 e3       	ldi	r24, 0x30	; 48
    23d2:	90 e0       	ldi	r25, 0x00	; 0
    23d4:	64 d3       	rcall	.+1736   	; 0x2a9e <fputc>
    23d6:	9a 94       	dec	r9
    23d8:	f8 cf       	rjmp	.-16     	; 0x23ca <vfprintf+0x386>
    23da:	8a 94       	dec	r8
    23dc:	f3 01       	movw	r30, r6
    23de:	e8 0d       	add	r30, r8
    23e0:	f1 1d       	adc	r31, r1
    23e2:	80 81       	ld	r24, Z
    23e4:	b6 01       	movw	r22, r12
    23e6:	90 e0       	ldi	r25, 0x00	; 0
    23e8:	5a d3       	rcall	.+1716   	; 0x2a9e <fputc>
    23ea:	81 10       	cpse	r8, r1
    23ec:	f6 cf       	rjmp	.-20     	; 0x23da <vfprintf+0x396>
    23ee:	22 20       	and	r2, r2
    23f0:	09 f4       	brne	.+2      	; 0x23f4 <vfprintf+0x3b0>
    23f2:	4e ce       	rjmp	.-868    	; 0x2090 <vfprintf+0x4c>
    23f4:	b6 01       	movw	r22, r12
    23f6:	80 e2       	ldi	r24, 0x20	; 32
    23f8:	90 e0       	ldi	r25, 0x00	; 0
    23fa:	51 d3       	rcall	.+1698   	; 0x2a9e <fputc>
    23fc:	2a 94       	dec	r2
    23fe:	f7 cf       	rjmp	.-18     	; 0x23ee <vfprintf+0x3aa>
    2400:	f6 01       	movw	r30, r12
    2402:	86 81       	ldd	r24, Z+6	; 0x06
    2404:	97 81       	ldd	r25, Z+7	; 0x07
    2406:	02 c0       	rjmp	.+4      	; 0x240c <vfprintf+0x3c8>
    2408:	8f ef       	ldi	r24, 0xFF	; 255
    240a:	9f ef       	ldi	r25, 0xFF	; 255
    240c:	2b 96       	adiw	r28, 0x0b	; 11
    240e:	0f b6       	in	r0, 0x3f	; 63
    2410:	f8 94       	cli
    2412:	de bf       	out	0x3e, r29	; 62
    2414:	0f be       	out	0x3f, r0	; 63
    2416:	cd bf       	out	0x3d, r28	; 61
    2418:	df 91       	pop	r29
    241a:	cf 91       	pop	r28
    241c:	1f 91       	pop	r17
    241e:	0f 91       	pop	r16
    2420:	ff 90       	pop	r15
    2422:	ef 90       	pop	r14
    2424:	df 90       	pop	r13
    2426:	cf 90       	pop	r12
    2428:	bf 90       	pop	r11
    242a:	af 90       	pop	r10
    242c:	9f 90       	pop	r9
    242e:	8f 90       	pop	r8
    2430:	7f 90       	pop	r7
    2432:	6f 90       	pop	r6
    2434:	5f 90       	pop	r5
    2436:	4f 90       	pop	r4
    2438:	3f 90       	pop	r3
    243a:	2f 90       	pop	r2
    243c:	08 95       	ret

0000243e <putval>:
    243e:	20 fd       	sbrc	r18, 0
    2440:	09 c0       	rjmp	.+18     	; 0x2454 <putval+0x16>
    2442:	fc 01       	movw	r30, r24
    2444:	23 fd       	sbrc	r18, 3
    2446:	05 c0       	rjmp	.+10     	; 0x2452 <putval+0x14>
    2448:	22 ff       	sbrs	r18, 2
    244a:	02 c0       	rjmp	.+4      	; 0x2450 <putval+0x12>
    244c:	73 83       	std	Z+3, r23	; 0x03
    244e:	62 83       	std	Z+2, r22	; 0x02
    2450:	51 83       	std	Z+1, r21	; 0x01
    2452:	40 83       	st	Z, r20
    2454:	08 95       	ret

00002456 <mulacc>:
    2456:	44 fd       	sbrc	r20, 4
    2458:	17 c0       	rjmp	.+46     	; 0x2488 <mulacc+0x32>
    245a:	46 fd       	sbrc	r20, 6
    245c:	17 c0       	rjmp	.+46     	; 0x248c <mulacc+0x36>
    245e:	ab 01       	movw	r20, r22
    2460:	bc 01       	movw	r22, r24
    2462:	da 01       	movw	r26, r20
    2464:	fb 01       	movw	r30, r22
    2466:	aa 0f       	add	r26, r26
    2468:	bb 1f       	adc	r27, r27
    246a:	ee 1f       	adc	r30, r30
    246c:	ff 1f       	adc	r31, r31
    246e:	10 94       	com	r1
    2470:	d1 f7       	brne	.-12     	; 0x2466 <mulacc+0x10>
    2472:	4a 0f       	add	r20, r26
    2474:	5b 1f       	adc	r21, r27
    2476:	6e 1f       	adc	r22, r30
    2478:	7f 1f       	adc	r23, r31
    247a:	cb 01       	movw	r24, r22
    247c:	ba 01       	movw	r22, r20
    247e:	66 0f       	add	r22, r22
    2480:	77 1f       	adc	r23, r23
    2482:	88 1f       	adc	r24, r24
    2484:	99 1f       	adc	r25, r25
    2486:	09 c0       	rjmp	.+18     	; 0x249a <mulacc+0x44>
    2488:	33 e0       	ldi	r19, 0x03	; 3
    248a:	01 c0       	rjmp	.+2      	; 0x248e <mulacc+0x38>
    248c:	34 e0       	ldi	r19, 0x04	; 4
    248e:	66 0f       	add	r22, r22
    2490:	77 1f       	adc	r23, r23
    2492:	88 1f       	adc	r24, r24
    2494:	99 1f       	adc	r25, r25
    2496:	31 50       	subi	r19, 0x01	; 1
    2498:	d1 f7       	brne	.-12     	; 0x248e <mulacc+0x38>
    249a:	62 0f       	add	r22, r18
    249c:	71 1d       	adc	r23, r1
    249e:	81 1d       	adc	r24, r1
    24a0:	91 1d       	adc	r25, r1
    24a2:	08 95       	ret

000024a4 <skip_spaces>:
    24a4:	0f 93       	push	r16
    24a6:	1f 93       	push	r17
    24a8:	cf 93       	push	r28
    24aa:	df 93       	push	r29
    24ac:	8c 01       	movw	r16, r24
    24ae:	c8 01       	movw	r24, r16
    24b0:	b8 d2       	rcall	.+1392   	; 0x2a22 <fgetc>
    24b2:	ec 01       	movw	r28, r24
    24b4:	97 fd       	sbrc	r25, 7
    24b6:	06 c0       	rjmp	.+12     	; 0x24c4 <skip_spaces+0x20>
    24b8:	8b d2       	rcall	.+1302   	; 0x29d0 <isspace>
    24ba:	89 2b       	or	r24, r25
    24bc:	c1 f7       	brne	.-16     	; 0x24ae <skip_spaces+0xa>
    24be:	b8 01       	movw	r22, r16
    24c0:	ce 01       	movw	r24, r28
    24c2:	29 d3       	rcall	.+1618   	; 0x2b16 <ungetc>
    24c4:	ce 01       	movw	r24, r28
    24c6:	df 91       	pop	r29
    24c8:	cf 91       	pop	r28
    24ca:	1f 91       	pop	r17
    24cc:	0f 91       	pop	r16
    24ce:	08 95       	ret

000024d0 <conv_int>:
    24d0:	8f 92       	push	r8
    24d2:	9f 92       	push	r9
    24d4:	af 92       	push	r10
    24d6:	bf 92       	push	r11
    24d8:	ef 92       	push	r14
    24da:	ff 92       	push	r15
    24dc:	0f 93       	push	r16
    24de:	1f 93       	push	r17
    24e0:	cf 93       	push	r28
    24e2:	df 93       	push	r29
    24e4:	8c 01       	movw	r16, r24
    24e6:	d6 2f       	mov	r29, r22
    24e8:	7a 01       	movw	r14, r20
    24ea:	b2 2e       	mov	r11, r18
    24ec:	9a d2       	rcall	.+1332   	; 0x2a22 <fgetc>
    24ee:	9c 01       	movw	r18, r24
    24f0:	33 27       	eor	r19, r19
    24f2:	2b 32       	cpi	r18, 0x2B	; 43
    24f4:	31 05       	cpc	r19, r1
    24f6:	31 f0       	breq	.+12     	; 0x2504 <conv_int+0x34>
    24f8:	2d 32       	cpi	r18, 0x2D	; 45
    24fa:	31 05       	cpc	r19, r1
    24fc:	59 f4       	brne	.+22     	; 0x2514 <conv_int+0x44>
    24fe:	8b 2d       	mov	r24, r11
    2500:	80 68       	ori	r24, 0x80	; 128
    2502:	b8 2e       	mov	r11, r24
    2504:	d1 50       	subi	r29, 0x01	; 1
    2506:	11 f4       	brne	.+4      	; 0x250c <conv_int+0x3c>
    2508:	80 e0       	ldi	r24, 0x00	; 0
    250a:	61 c0       	rjmp	.+194    	; 0x25ce <conv_int+0xfe>
    250c:	c8 01       	movw	r24, r16
    250e:	89 d2       	rcall	.+1298   	; 0x2a22 <fgetc>
    2510:	97 fd       	sbrc	r25, 7
    2512:	fa cf       	rjmp	.-12     	; 0x2508 <conv_int+0x38>
    2514:	cb 2d       	mov	r28, r11
    2516:	cd 7f       	andi	r28, 0xFD	; 253
    2518:	2b 2d       	mov	r18, r11
    251a:	20 73       	andi	r18, 0x30	; 48
    251c:	f9 f4       	brne	.+62     	; 0x255c <conv_int+0x8c>
    251e:	80 33       	cpi	r24, 0x30	; 48
    2520:	e9 f4       	brne	.+58     	; 0x255c <conv_int+0x8c>
    2522:	aa 24       	eor	r10, r10
    2524:	aa 94       	dec	r10
    2526:	ad 0e       	add	r10, r29
    2528:	09 f4       	brne	.+2      	; 0x252c <conv_int+0x5c>
    252a:	3e c0       	rjmp	.+124    	; 0x25a8 <conv_int+0xd8>
    252c:	c8 01       	movw	r24, r16
    252e:	79 d2       	rcall	.+1266   	; 0x2a22 <fgetc>
    2530:	97 fd       	sbrc	r25, 7
    2532:	3a c0       	rjmp	.+116    	; 0x25a8 <conv_int+0xd8>
    2534:	9c 01       	movw	r18, r24
    2536:	2f 7d       	andi	r18, 0xDF	; 223
    2538:	33 27       	eor	r19, r19
    253a:	28 35       	cpi	r18, 0x58	; 88
    253c:	31 05       	cpc	r19, r1
    253e:	41 f4       	brne	.+16     	; 0x2550 <conv_int+0x80>
    2540:	c2 64       	ori	r28, 0x42	; 66
    2542:	d2 50       	subi	r29, 0x02	; 2
    2544:	89 f1       	breq	.+98     	; 0x25a8 <conv_int+0xd8>
    2546:	c8 01       	movw	r24, r16
    2548:	6c d2       	rcall	.+1240   	; 0x2a22 <fgetc>
    254a:	97 ff       	sbrs	r25, 7
    254c:	07 c0       	rjmp	.+14     	; 0x255c <conv_int+0x8c>
    254e:	2c c0       	rjmp	.+88     	; 0x25a8 <conv_int+0xd8>
    2550:	b6 fe       	sbrs	r11, 6
    2552:	02 c0       	rjmp	.+4      	; 0x2558 <conv_int+0x88>
    2554:	c2 60       	ori	r28, 0x02	; 2
    2556:	01 c0       	rjmp	.+2      	; 0x255a <conv_int+0x8a>
    2558:	c2 61       	ori	r28, 0x12	; 18
    255a:	da 2d       	mov	r29, r10
    255c:	81 2c       	mov	r8, r1
    255e:	91 2c       	mov	r9, r1
    2560:	54 01       	movw	r10, r8
    2562:	20 ed       	ldi	r18, 0xD0	; 208
    2564:	28 0f       	add	r18, r24
    2566:	28 30       	cpi	r18, 0x08	; 8
    2568:	78 f0       	brcs	.+30     	; 0x2588 <conv_int+0xb8>
    256a:	c4 ff       	sbrs	r28, 4
    256c:	03 c0       	rjmp	.+6      	; 0x2574 <conv_int+0xa4>
    256e:	b8 01       	movw	r22, r16
    2570:	d2 d2       	rcall	.+1444   	; 0x2b16 <ungetc>
    2572:	17 c0       	rjmp	.+46     	; 0x25a2 <conv_int+0xd2>
    2574:	2a 30       	cpi	r18, 0x0A	; 10
    2576:	40 f0       	brcs	.+16     	; 0x2588 <conv_int+0xb8>
    2578:	c6 ff       	sbrs	r28, 6
    257a:	f9 cf       	rjmp	.-14     	; 0x256e <conv_int+0x9e>
    257c:	2f 7d       	andi	r18, 0xDF	; 223
    257e:	3f ee       	ldi	r19, 0xEF	; 239
    2580:	32 0f       	add	r19, r18
    2582:	36 30       	cpi	r19, 0x06	; 6
    2584:	a0 f7       	brcc	.-24     	; 0x256e <conv_int+0x9e>
    2586:	27 50       	subi	r18, 0x07	; 7
    2588:	4c 2f       	mov	r20, r28
    258a:	c5 01       	movw	r24, r10
    258c:	b4 01       	movw	r22, r8
    258e:	63 df       	rcall	.-314    	; 0x2456 <mulacc>
    2590:	4b 01       	movw	r8, r22
    2592:	5c 01       	movw	r10, r24
    2594:	c2 60       	ori	r28, 0x02	; 2
    2596:	d1 50       	subi	r29, 0x01	; 1
    2598:	51 f0       	breq	.+20     	; 0x25ae <conv_int+0xde>
    259a:	c8 01       	movw	r24, r16
    259c:	42 d2       	rcall	.+1156   	; 0x2a22 <fgetc>
    259e:	97 ff       	sbrs	r25, 7
    25a0:	e0 cf       	rjmp	.-64     	; 0x2562 <conv_int+0x92>
    25a2:	c1 fd       	sbrc	r28, 1
    25a4:	04 c0       	rjmp	.+8      	; 0x25ae <conv_int+0xde>
    25a6:	b0 cf       	rjmp	.-160    	; 0x2508 <conv_int+0x38>
    25a8:	81 2c       	mov	r8, r1
    25aa:	91 2c       	mov	r9, r1
    25ac:	54 01       	movw	r10, r8
    25ae:	c7 ff       	sbrs	r28, 7
    25b0:	08 c0       	rjmp	.+16     	; 0x25c2 <conv_int+0xf2>
    25b2:	b0 94       	com	r11
    25b4:	a0 94       	com	r10
    25b6:	90 94       	com	r9
    25b8:	80 94       	com	r8
    25ba:	81 1c       	adc	r8, r1
    25bc:	91 1c       	adc	r9, r1
    25be:	a1 1c       	adc	r10, r1
    25c0:	b1 1c       	adc	r11, r1
    25c2:	2c 2f       	mov	r18, r28
    25c4:	b5 01       	movw	r22, r10
    25c6:	a4 01       	movw	r20, r8
    25c8:	c7 01       	movw	r24, r14
    25ca:	39 df       	rcall	.-398    	; 0x243e <putval>
    25cc:	81 e0       	ldi	r24, 0x01	; 1
    25ce:	df 91       	pop	r29
    25d0:	cf 91       	pop	r28
    25d2:	1f 91       	pop	r17
    25d4:	0f 91       	pop	r16
    25d6:	ff 90       	pop	r15
    25d8:	ef 90       	pop	r14
    25da:	bf 90       	pop	r11
    25dc:	af 90       	pop	r10
    25de:	9f 90       	pop	r9
    25e0:	8f 90       	pop	r8
    25e2:	08 95       	ret

000025e4 <conv_brk>:
    25e4:	5f 92       	push	r5
    25e6:	6f 92       	push	r6
    25e8:	7f 92       	push	r7
    25ea:	8f 92       	push	r8
    25ec:	9f 92       	push	r9
    25ee:	af 92       	push	r10
    25f0:	bf 92       	push	r11
    25f2:	cf 92       	push	r12
    25f4:	df 92       	push	r13
    25f6:	ef 92       	push	r14
    25f8:	ff 92       	push	r15
    25fa:	0f 93       	push	r16
    25fc:	1f 93       	push	r17
    25fe:	cf 93       	push	r28
    2600:	df 93       	push	r29
    2602:	cd b7       	in	r28, 0x3d	; 61
    2604:	de b7       	in	r29, 0x3e	; 62
    2606:	a0 97       	sbiw	r28, 0x20	; 32
    2608:	0f b6       	in	r0, 0x3f	; 63
    260a:	f8 94       	cli
    260c:	de bf       	out	0x3e, r29	; 62
    260e:	0f be       	out	0x3f, r0	; 63
    2610:	cd bf       	out	0x3d, r28	; 61
    2612:	5c 01       	movw	r10, r24
    2614:	96 2e       	mov	r9, r22
    2616:	7a 01       	movw	r14, r20
    2618:	f9 01       	movw	r30, r18
    261a:	8e 01       	movw	r16, r28
    261c:	0f 5f       	subi	r16, 0xFF	; 255
    261e:	1f 4f       	sbci	r17, 0xFF	; 255
    2620:	68 01       	movw	r12, r16
    2622:	80 e2       	ldi	r24, 0x20	; 32
    2624:	d8 01       	movw	r26, r16
    2626:	1d 92       	st	X+, r1
    2628:	8a 95       	dec	r24
    262a:	e9 f7       	brne	.-6      	; 0x2626 <conv_brk+0x42>
    262c:	d5 01       	movw	r26, r10
    262e:	13 96       	adiw	r26, 0x03	; 3
    2630:	8c 90       	ld	r8, X
    2632:	80 e0       	ldi	r24, 0x00	; 0
    2634:	90 e0       	ldi	r25, 0x00	; 0
    2636:	61 2c       	mov	r6, r1
    2638:	71 2c       	mov	r7, r1
    263a:	30 e0       	ldi	r19, 0x00	; 0
    263c:	61 e0       	ldi	r22, 0x01	; 1
    263e:	70 e0       	ldi	r23, 0x00	; 0
    2640:	83 fc       	sbrc	r8, 3
    2642:	25 91       	lpm	r18, Z+
    2644:	83 fe       	sbrs	r8, 3
    2646:	21 91       	ld	r18, Z+
    2648:	8f 01       	movw	r16, r30
    264a:	52 2e       	mov	r5, r18
    264c:	21 11       	cpse	r18, r1
    264e:	03 c0       	rjmp	.+6      	; 0x2656 <conv_brk+0x72>
    2650:	80 e0       	ldi	r24, 0x00	; 0
    2652:	90 e0       	ldi	r25, 0x00	; 0
    2654:	90 c0       	rjmp	.+288    	; 0x2776 <conv_brk+0x192>
    2656:	2e 35       	cpi	r18, 0x5E	; 94
    2658:	11 f4       	brne	.+4      	; 0x265e <conv_brk+0x7a>
    265a:	00 97       	sbiw	r24, 0x00	; 0
    265c:	51 f1       	breq	.+84     	; 0x26b2 <conv_brk+0xce>
    265e:	43 2f       	mov	r20, r19
    2660:	50 e0       	ldi	r21, 0x00	; 0
    2662:	48 17       	cp	r20, r24
    2664:	59 07       	cpc	r21, r25
    2666:	3c f4       	brge	.+14     	; 0x2676 <conv_brk+0x92>
    2668:	2d 35       	cpi	r18, 0x5D	; 93
    266a:	59 f1       	breq	.+86     	; 0x26c2 <conv_brk+0xde>
    266c:	2d 32       	cpi	r18, 0x2D	; 45
    266e:	19 f4       	brne	.+6      	; 0x2676 <conv_brk+0x92>
    2670:	77 20       	and	r7, r7
    2672:	09 f1       	breq	.+66     	; 0x26b6 <conv_brk+0xd2>
    2674:	03 c0       	rjmp	.+6      	; 0x267c <conv_brk+0x98>
    2676:	77 20       	and	r7, r7
    2678:	09 f4       	brne	.+2      	; 0x267c <conv_brk+0x98>
    267a:	68 c0       	rjmp	.+208    	; 0x274c <conv_brk+0x168>
    267c:	45 2d       	mov	r20, r5
    267e:	46 95       	lsr	r20
    2680:	46 95       	lsr	r20
    2682:	46 95       	lsr	r20
    2684:	d6 01       	movw	r26, r12
    2686:	a4 0f       	add	r26, r20
    2688:	b1 1d       	adc	r27, r1
    268a:	45 2d       	mov	r20, r5
    268c:	47 70       	andi	r20, 0x07	; 7
    268e:	8b 01       	movw	r16, r22
    2690:	02 c0       	rjmp	.+4      	; 0x2696 <conv_brk+0xb2>
    2692:	00 0f       	add	r16, r16
    2694:	11 1f       	adc	r17, r17
    2696:	4a 95       	dec	r20
    2698:	e2 f7       	brpl	.-8      	; 0x2692 <conv_brk+0xae>
    269a:	a8 01       	movw	r20, r16
    269c:	5c 91       	ld	r21, X
    269e:	45 2b       	or	r20, r21
    26a0:	4c 93       	st	X, r20
    26a2:	65 14       	cp	r6, r5
    26a4:	59 f0       	breq	.+22     	; 0x26bc <conv_brk+0xd8>
    26a6:	56 14       	cp	r5, r6
    26a8:	10 f4       	brcc	.+4      	; 0x26ae <conv_brk+0xca>
    26aa:	53 94       	inc	r5
    26ac:	e7 cf       	rjmp	.-50     	; 0x267c <conv_brk+0x98>
    26ae:	5a 94       	dec	r5
    26b0:	e5 cf       	rjmp	.-54     	; 0x267c <conv_brk+0x98>
    26b2:	31 e0       	ldi	r19, 0x01	; 1
    26b4:	04 c0       	rjmp	.+8      	; 0x26be <conv_brk+0xda>
    26b6:	77 24       	eor	r7, r7
    26b8:	73 94       	inc	r7
    26ba:	01 c0       	rjmp	.+2      	; 0x26be <conv_brk+0xda>
    26bc:	71 2c       	mov	r7, r1
    26be:	01 96       	adiw	r24, 0x01	; 1
    26c0:	bf cf       	rjmp	.-130    	; 0x2640 <conv_brk+0x5c>
    26c2:	77 20       	and	r7, r7
    26c4:	19 f0       	breq	.+6      	; 0x26cc <conv_brk+0xe8>
    26c6:	8e 81       	ldd	r24, Y+6	; 0x06
    26c8:	80 62       	ori	r24, 0x20	; 32
    26ca:	8e 83       	std	Y+6, r24	; 0x06
    26cc:	31 11       	cpse	r19, r1
    26ce:	03 c0       	rjmp	.+6      	; 0x26d6 <conv_brk+0xf2>
    26d0:	88 24       	eor	r8, r8
    26d2:	83 94       	inc	r8
    26d4:	17 c0       	rjmp	.+46     	; 0x2704 <conv_brk+0x120>
    26d6:	f6 01       	movw	r30, r12
    26d8:	9e 01       	movw	r18, r28
    26da:	2f 5d       	subi	r18, 0xDF	; 223
    26dc:	3f 4f       	sbci	r19, 0xFF	; 255
    26de:	80 81       	ld	r24, Z
    26e0:	80 95       	com	r24
    26e2:	81 93       	st	Z+, r24
    26e4:	2e 17       	cp	r18, r30
    26e6:	3f 07       	cpc	r19, r31
    26e8:	d1 f7       	brne	.-12     	; 0x26de <conv_brk+0xfa>
    26ea:	f2 cf       	rjmp	.-28     	; 0x26d0 <conv_brk+0xec>
    26ec:	e1 14       	cp	r14, r1
    26ee:	f1 04       	cpc	r15, r1
    26f0:	29 f0       	breq	.+10     	; 0x26fc <conv_brk+0x118>
    26f2:	d7 01       	movw	r26, r14
    26f4:	8c 93       	st	X, r24
    26f6:	f7 01       	movw	r30, r14
    26f8:	31 96       	adiw	r30, 0x01	; 1
    26fa:	7f 01       	movw	r14, r30
    26fc:	9a 94       	dec	r9
    26fe:	81 2c       	mov	r8, r1
    2700:	99 20       	and	r9, r9
    2702:	e9 f0       	breq	.+58     	; 0x273e <conv_brk+0x15a>
    2704:	c5 01       	movw	r24, r10
    2706:	8d d1       	rcall	.+794    	; 0x2a22 <fgetc>
    2708:	97 fd       	sbrc	r25, 7
    270a:	17 c0       	rjmp	.+46     	; 0x273a <conv_brk+0x156>
    270c:	fc 01       	movw	r30, r24
    270e:	ff 27       	eor	r31, r31
    2710:	23 e0       	ldi	r18, 0x03	; 3
    2712:	f5 95       	asr	r31
    2714:	e7 95       	ror	r30
    2716:	2a 95       	dec	r18
    2718:	e1 f7       	brne	.-8      	; 0x2712 <conv_brk+0x12e>
    271a:	ec 0d       	add	r30, r12
    271c:	fd 1d       	adc	r31, r13
    271e:	20 81       	ld	r18, Z
    2720:	30 e0       	ldi	r19, 0x00	; 0
    2722:	ac 01       	movw	r20, r24
    2724:	47 70       	andi	r20, 0x07	; 7
    2726:	55 27       	eor	r21, r21
    2728:	02 c0       	rjmp	.+4      	; 0x272e <conv_brk+0x14a>
    272a:	35 95       	asr	r19
    272c:	27 95       	ror	r18
    272e:	4a 95       	dec	r20
    2730:	e2 f7       	brpl	.-8      	; 0x272a <conv_brk+0x146>
    2732:	20 fd       	sbrc	r18, 0
    2734:	db cf       	rjmp	.-74     	; 0x26ec <conv_brk+0x108>
    2736:	b5 01       	movw	r22, r10
    2738:	ee d1       	rcall	.+988    	; 0x2b16 <ungetc>
    273a:	81 10       	cpse	r8, r1
    273c:	89 cf       	rjmp	.-238    	; 0x2650 <conv_brk+0x6c>
    273e:	e1 14       	cp	r14, r1
    2740:	f1 04       	cpc	r15, r1
    2742:	11 f0       	breq	.+4      	; 0x2748 <conv_brk+0x164>
    2744:	d7 01       	movw	r26, r14
    2746:	1c 92       	st	X, r1
    2748:	c8 01       	movw	r24, r16
    274a:	15 c0       	rjmp	.+42     	; 0x2776 <conv_brk+0x192>
    274c:	42 2f       	mov	r20, r18
    274e:	46 95       	lsr	r20
    2750:	46 95       	lsr	r20
    2752:	46 95       	lsr	r20
    2754:	d6 01       	movw	r26, r12
    2756:	a4 0f       	add	r26, r20
    2758:	b1 1d       	adc	r27, r1
    275a:	42 2f       	mov	r20, r18
    275c:	47 70       	andi	r20, 0x07	; 7
    275e:	8b 01       	movw	r16, r22
    2760:	02 c0       	rjmp	.+4      	; 0x2766 <conv_brk+0x182>
    2762:	00 0f       	add	r16, r16
    2764:	11 1f       	adc	r17, r17
    2766:	4a 95       	dec	r20
    2768:	e2 f7       	brpl	.-8      	; 0x2762 <conv_brk+0x17e>
    276a:	a8 01       	movw	r20, r16
    276c:	5c 91       	ld	r21, X
    276e:	45 2b       	or	r20, r21
    2770:	4c 93       	st	X, r20
    2772:	62 2e       	mov	r6, r18
    2774:	a4 cf       	rjmp	.-184    	; 0x26be <conv_brk+0xda>
    2776:	a0 96       	adiw	r28, 0x20	; 32
    2778:	0f b6       	in	r0, 0x3f	; 63
    277a:	f8 94       	cli
    277c:	de bf       	out	0x3e, r29	; 62
    277e:	0f be       	out	0x3f, r0	; 63
    2780:	cd bf       	out	0x3d, r28	; 61
    2782:	df 91       	pop	r29
    2784:	cf 91       	pop	r28
    2786:	1f 91       	pop	r17
    2788:	0f 91       	pop	r16
    278a:	ff 90       	pop	r15
    278c:	ef 90       	pop	r14
    278e:	df 90       	pop	r13
    2790:	cf 90       	pop	r12
    2792:	bf 90       	pop	r11
    2794:	af 90       	pop	r10
    2796:	9f 90       	pop	r9
    2798:	8f 90       	pop	r8
    279a:	7f 90       	pop	r7
    279c:	6f 90       	pop	r6
    279e:	5f 90       	pop	r5
    27a0:	08 95       	ret

000027a2 <vfscanf>:
    27a2:	5f 92       	push	r5
    27a4:	6f 92       	push	r6
    27a6:	7f 92       	push	r7
    27a8:	8f 92       	push	r8
    27aa:	9f 92       	push	r9
    27ac:	af 92       	push	r10
    27ae:	bf 92       	push	r11
    27b0:	cf 92       	push	r12
    27b2:	df 92       	push	r13
    27b4:	ef 92       	push	r14
    27b6:	ff 92       	push	r15
    27b8:	0f 93       	push	r16
    27ba:	1f 93       	push	r17
    27bc:	cf 93       	push	r28
    27be:	df 93       	push	r29
    27c0:	6c 01       	movw	r12, r24
    27c2:	eb 01       	movw	r28, r22
    27c4:	5a 01       	movw	r10, r20
    27c6:	fc 01       	movw	r30, r24
    27c8:	17 82       	std	Z+7, r1	; 0x07
    27ca:	16 82       	std	Z+6, r1	; 0x06
    27cc:	51 2c       	mov	r5, r1
    27ce:	f6 01       	movw	r30, r12
    27d0:	e3 80       	ldd	r14, Z+3	; 0x03
    27d2:	fe 01       	movw	r30, r28
    27d4:	e3 fc       	sbrc	r14, 3
    27d6:	85 91       	lpm	r24, Z+
    27d8:	e3 fe       	sbrs	r14, 3
    27da:	81 91       	ld	r24, Z+
    27dc:	18 2f       	mov	r17, r24
    27de:	ef 01       	movw	r28, r30
    27e0:	88 23       	and	r24, r24
    27e2:	09 f4       	brne	.+2      	; 0x27e6 <vfscanf+0x44>
    27e4:	e0 c0       	rjmp	.+448    	; 0x29a6 <vfscanf+0x204>
    27e6:	90 e0       	ldi	r25, 0x00	; 0
    27e8:	f3 d0       	rcall	.+486    	; 0x29d0 <isspace>
    27ea:	89 2b       	or	r24, r25
    27ec:	19 f0       	breq	.+6      	; 0x27f4 <vfscanf+0x52>
    27ee:	c6 01       	movw	r24, r12
    27f0:	59 de       	rcall	.-846    	; 0x24a4 <skip_spaces>
    27f2:	ed cf       	rjmp	.-38     	; 0x27ce <vfscanf+0x2c>
    27f4:	15 32       	cpi	r17, 0x25	; 37
    27f6:	41 f4       	brne	.+16     	; 0x2808 <vfscanf+0x66>
    27f8:	fe 01       	movw	r30, r28
    27fa:	e3 fc       	sbrc	r14, 3
    27fc:	15 91       	lpm	r17, Z+
    27fe:	e3 fe       	sbrs	r14, 3
    2800:	11 91       	ld	r17, Z+
    2802:	ef 01       	movw	r28, r30
    2804:	15 32       	cpi	r17, 0x25	; 37
    2806:	71 f4       	brne	.+28     	; 0x2824 <vfscanf+0x82>
    2808:	c6 01       	movw	r24, r12
    280a:	0b d1       	rcall	.+534    	; 0x2a22 <fgetc>
    280c:	97 fd       	sbrc	r25, 7
    280e:	c9 c0       	rjmp	.+402    	; 0x29a2 <vfscanf+0x200>
    2810:	41 2f       	mov	r20, r17
    2812:	50 e0       	ldi	r21, 0x00	; 0
    2814:	9c 01       	movw	r18, r24
    2816:	33 27       	eor	r19, r19
    2818:	24 17       	cp	r18, r20
    281a:	35 07       	cpc	r19, r21
    281c:	c1 f2       	breq	.-80     	; 0x27ce <vfscanf+0x2c>
    281e:	b6 01       	movw	r22, r12
    2820:	7a d1       	rcall	.+756    	; 0x2b16 <ungetc>
    2822:	c1 c0       	rjmp	.+386    	; 0x29a6 <vfscanf+0x204>
    2824:	1a 32       	cpi	r17, 0x2A	; 42
    2826:	39 f4       	brne	.+14     	; 0x2836 <vfscanf+0x94>
    2828:	e3 fc       	sbrc	r14, 3
    282a:	15 91       	lpm	r17, Z+
    282c:	e3 fe       	sbrs	r14, 3
    282e:	11 91       	ld	r17, Z+
    2830:	ef 01       	movw	r28, r30
    2832:	01 e0       	ldi	r16, 0x01	; 1
    2834:	01 c0       	rjmp	.+2      	; 0x2838 <vfscanf+0x96>
    2836:	00 e0       	ldi	r16, 0x00	; 0
    2838:	f1 2c       	mov	r15, r1
    283a:	20 ed       	ldi	r18, 0xD0	; 208
    283c:	21 0f       	add	r18, r17
    283e:	2a 30       	cpi	r18, 0x0A	; 10
    2840:	78 f4       	brcc	.+30     	; 0x2860 <vfscanf+0xbe>
    2842:	02 60       	ori	r16, 0x02	; 2
    2844:	6f 2d       	mov	r22, r15
    2846:	70 e0       	ldi	r23, 0x00	; 0
    2848:	80 e0       	ldi	r24, 0x00	; 0
    284a:	90 e0       	ldi	r25, 0x00	; 0
    284c:	40 e2       	ldi	r20, 0x20	; 32
    284e:	03 de       	rcall	.-1018   	; 0x2456 <mulacc>
    2850:	f6 2e       	mov	r15, r22
    2852:	fe 01       	movw	r30, r28
    2854:	e3 fc       	sbrc	r14, 3
    2856:	15 91       	lpm	r17, Z+
    2858:	e3 fe       	sbrs	r14, 3
    285a:	11 91       	ld	r17, Z+
    285c:	ef 01       	movw	r28, r30
    285e:	ed cf       	rjmp	.-38     	; 0x283a <vfscanf+0x98>
    2860:	01 ff       	sbrs	r16, 1
    2862:	03 c0       	rjmp	.+6      	; 0x286a <vfscanf+0xc8>
    2864:	f1 10       	cpse	r15, r1
    2866:	03 c0       	rjmp	.+6      	; 0x286e <vfscanf+0xcc>
    2868:	9e c0       	rjmp	.+316    	; 0x29a6 <vfscanf+0x204>
    286a:	ff 24       	eor	r15, r15
    286c:	fa 94       	dec	r15
    286e:	18 36       	cpi	r17, 0x68	; 104
    2870:	19 f0       	breq	.+6      	; 0x2878 <vfscanf+0xd6>
    2872:	1c 36       	cpi	r17, 0x6C	; 108
    2874:	51 f0       	breq	.+20     	; 0x288a <vfscanf+0xe8>
    2876:	10 c0       	rjmp	.+32     	; 0x2898 <vfscanf+0xf6>
    2878:	fe 01       	movw	r30, r28
    287a:	e3 fc       	sbrc	r14, 3
    287c:	15 91       	lpm	r17, Z+
    287e:	e3 fe       	sbrs	r14, 3
    2880:	11 91       	ld	r17, Z+
    2882:	ef 01       	movw	r28, r30
    2884:	18 36       	cpi	r17, 0x68	; 104
    2886:	41 f4       	brne	.+16     	; 0x2898 <vfscanf+0xf6>
    2888:	08 60       	ori	r16, 0x08	; 8
    288a:	04 60       	ori	r16, 0x04	; 4
    288c:	fe 01       	movw	r30, r28
    288e:	e3 fc       	sbrc	r14, 3
    2890:	15 91       	lpm	r17, Z+
    2892:	e3 fe       	sbrs	r14, 3
    2894:	11 91       	ld	r17, Z+
    2896:	ef 01       	movw	r28, r30
    2898:	11 23       	and	r17, r17
    289a:	09 f4       	brne	.+2      	; 0x289e <vfscanf+0xfc>
    289c:	84 c0       	rjmp	.+264    	; 0x29a6 <vfscanf+0x204>
    289e:	61 2f       	mov	r22, r17
    28a0:	70 e0       	ldi	r23, 0x00	; 0
    28a2:	8c e8       	ldi	r24, 0x8C	; 140
    28a4:	90 e0       	ldi	r25, 0x00	; 0
    28a6:	9c d0       	rcall	.+312    	; 0x29e0 <strchr_P>
    28a8:	89 2b       	or	r24, r25
    28aa:	09 f4       	brne	.+2      	; 0x28ae <vfscanf+0x10c>
    28ac:	7c c0       	rjmp	.+248    	; 0x29a6 <vfscanf+0x204>
    28ae:	00 fd       	sbrc	r16, 0
    28b0:	07 c0       	rjmp	.+14     	; 0x28c0 <vfscanf+0x11e>
    28b2:	f5 01       	movw	r30, r10
    28b4:	80 80       	ld	r8, Z
    28b6:	91 80       	ldd	r9, Z+1	; 0x01
    28b8:	c5 01       	movw	r24, r10
    28ba:	02 96       	adiw	r24, 0x02	; 2
    28bc:	5c 01       	movw	r10, r24
    28be:	02 c0       	rjmp	.+4      	; 0x28c4 <vfscanf+0x122>
    28c0:	81 2c       	mov	r8, r1
    28c2:	91 2c       	mov	r9, r1
    28c4:	1e 36       	cpi	r17, 0x6E	; 110
    28c6:	49 f4       	brne	.+18     	; 0x28da <vfscanf+0x138>
    28c8:	f6 01       	movw	r30, r12
    28ca:	46 81       	ldd	r20, Z+6	; 0x06
    28cc:	57 81       	ldd	r21, Z+7	; 0x07
    28ce:	60 e0       	ldi	r22, 0x00	; 0
    28d0:	70 e0       	ldi	r23, 0x00	; 0
    28d2:	20 2f       	mov	r18, r16
    28d4:	c4 01       	movw	r24, r8
    28d6:	b3 dd       	rcall	.-1178   	; 0x243e <putval>
    28d8:	7a cf       	rjmp	.-268    	; 0x27ce <vfscanf+0x2c>
    28da:	13 36       	cpi	r17, 0x63	; 99
    28dc:	a1 f4       	brne	.+40     	; 0x2906 <vfscanf+0x164>
    28de:	01 fd       	sbrc	r16, 1
    28e0:	02 c0       	rjmp	.+4      	; 0x28e6 <vfscanf+0x144>
    28e2:	ff 24       	eor	r15, r15
    28e4:	f3 94       	inc	r15
    28e6:	c6 01       	movw	r24, r12
    28e8:	9c d0       	rcall	.+312    	; 0x2a22 <fgetc>
    28ea:	97 fd       	sbrc	r25, 7
    28ec:	5a c0       	rjmp	.+180    	; 0x29a2 <vfscanf+0x200>
    28ee:	81 14       	cp	r8, r1
    28f0:	91 04       	cpc	r9, r1
    28f2:	29 f0       	breq	.+10     	; 0x28fe <vfscanf+0x15c>
    28f4:	f4 01       	movw	r30, r8
    28f6:	80 83       	st	Z, r24
    28f8:	c4 01       	movw	r24, r8
    28fa:	01 96       	adiw	r24, 0x01	; 1
    28fc:	4c 01       	movw	r8, r24
    28fe:	fa 94       	dec	r15
    2900:	f1 10       	cpse	r15, r1
    2902:	f1 cf       	rjmp	.-30     	; 0x28e6 <vfscanf+0x144>
    2904:	4a c0       	rjmp	.+148    	; 0x299a <vfscanf+0x1f8>
    2906:	1b 35       	cpi	r17, 0x5B	; 91
    2908:	51 f4       	brne	.+20     	; 0x291e <vfscanf+0x17c>
    290a:	9e 01       	movw	r18, r28
    290c:	a4 01       	movw	r20, r8
    290e:	6f 2d       	mov	r22, r15
    2910:	c6 01       	movw	r24, r12
    2912:	68 de       	rcall	.-816    	; 0x25e4 <conv_brk>
    2914:	ec 01       	movw	r28, r24
    2916:	89 2b       	or	r24, r25
    2918:	09 f0       	breq	.+2      	; 0x291c <vfscanf+0x17a>
    291a:	3f c0       	rjmp	.+126    	; 0x299a <vfscanf+0x1f8>
    291c:	39 c0       	rjmp	.+114    	; 0x2990 <vfscanf+0x1ee>
    291e:	c6 01       	movw	r24, r12
    2920:	c1 dd       	rcall	.-1150   	; 0x24a4 <skip_spaces>
    2922:	97 fd       	sbrc	r25, 7
    2924:	3e c0       	rjmp	.+124    	; 0x29a2 <vfscanf+0x200>
    2926:	1f 36       	cpi	r17, 0x6F	; 111
    2928:	49 f1       	breq	.+82     	; 0x297c <vfscanf+0x1da>
    292a:	28 f4       	brcc	.+10     	; 0x2936 <vfscanf+0x194>
    292c:	14 36       	cpi	r17, 0x64	; 100
    292e:	21 f1       	breq	.+72     	; 0x2978 <vfscanf+0x1d6>
    2930:	19 36       	cpi	r17, 0x69	; 105
    2932:	39 f1       	breq	.+78     	; 0x2982 <vfscanf+0x1e0>
    2934:	25 c0       	rjmp	.+74     	; 0x2980 <vfscanf+0x1de>
    2936:	13 37       	cpi	r17, 0x73	; 115
    2938:	71 f0       	breq	.+28     	; 0x2956 <vfscanf+0x1b4>
    293a:	15 37       	cpi	r17, 0x75	; 117
    293c:	e9 f0       	breq	.+58     	; 0x2978 <vfscanf+0x1d6>
    293e:	20 c0       	rjmp	.+64     	; 0x2980 <vfscanf+0x1de>
    2940:	81 14       	cp	r8, r1
    2942:	91 04       	cpc	r9, r1
    2944:	29 f0       	breq	.+10     	; 0x2950 <vfscanf+0x1ae>
    2946:	f4 01       	movw	r30, r8
    2948:	60 82       	st	Z, r6
    294a:	c4 01       	movw	r24, r8
    294c:	01 96       	adiw	r24, 0x01	; 1
    294e:	4c 01       	movw	r8, r24
    2950:	fa 94       	dec	r15
    2952:	ff 20       	and	r15, r15
    2954:	59 f0       	breq	.+22     	; 0x296c <vfscanf+0x1ca>
    2956:	c6 01       	movw	r24, r12
    2958:	64 d0       	rcall	.+200    	; 0x2a22 <fgetc>
    295a:	3c 01       	movw	r6, r24
    295c:	97 fd       	sbrc	r25, 7
    295e:	06 c0       	rjmp	.+12     	; 0x296c <vfscanf+0x1ca>
    2960:	37 d0       	rcall	.+110    	; 0x29d0 <isspace>
    2962:	89 2b       	or	r24, r25
    2964:	69 f3       	breq	.-38     	; 0x2940 <vfscanf+0x19e>
    2966:	b6 01       	movw	r22, r12
    2968:	c3 01       	movw	r24, r6
    296a:	d5 d0       	rcall	.+426    	; 0x2b16 <ungetc>
    296c:	81 14       	cp	r8, r1
    296e:	91 04       	cpc	r9, r1
    2970:	a1 f0       	breq	.+40     	; 0x299a <vfscanf+0x1f8>
    2972:	f4 01       	movw	r30, r8
    2974:	10 82       	st	Z, r1
    2976:	11 c0       	rjmp	.+34     	; 0x299a <vfscanf+0x1f8>
    2978:	00 62       	ori	r16, 0x20	; 32
    297a:	03 c0       	rjmp	.+6      	; 0x2982 <vfscanf+0x1e0>
    297c:	00 61       	ori	r16, 0x10	; 16
    297e:	01 c0       	rjmp	.+2      	; 0x2982 <vfscanf+0x1e0>
    2980:	00 64       	ori	r16, 0x40	; 64
    2982:	20 2f       	mov	r18, r16
    2984:	a4 01       	movw	r20, r8
    2986:	6f 2d       	mov	r22, r15
    2988:	c6 01       	movw	r24, r12
    298a:	a2 dd       	rcall	.-1212   	; 0x24d0 <conv_int>
    298c:	81 11       	cpse	r24, r1
    298e:	05 c0       	rjmp	.+10     	; 0x299a <vfscanf+0x1f8>
    2990:	f6 01       	movw	r30, r12
    2992:	83 81       	ldd	r24, Z+3	; 0x03
    2994:	80 73       	andi	r24, 0x30	; 48
    2996:	29 f4       	brne	.+10     	; 0x29a2 <vfscanf+0x200>
    2998:	06 c0       	rjmp	.+12     	; 0x29a6 <vfscanf+0x204>
    299a:	00 fd       	sbrc	r16, 0
    299c:	18 cf       	rjmp	.-464    	; 0x27ce <vfscanf+0x2c>
    299e:	53 94       	inc	r5
    29a0:	16 cf       	rjmp	.-468    	; 0x27ce <vfscanf+0x2c>
    29a2:	55 20       	and	r5, r5
    29a4:	19 f0       	breq	.+6      	; 0x29ac <vfscanf+0x20a>
    29a6:	85 2d       	mov	r24, r5
    29a8:	90 e0       	ldi	r25, 0x00	; 0
    29aa:	02 c0       	rjmp	.+4      	; 0x29b0 <vfscanf+0x20e>
    29ac:	8f ef       	ldi	r24, 0xFF	; 255
    29ae:	9f ef       	ldi	r25, 0xFF	; 255
    29b0:	df 91       	pop	r29
    29b2:	cf 91       	pop	r28
    29b4:	1f 91       	pop	r17
    29b6:	0f 91       	pop	r16
    29b8:	ff 90       	pop	r15
    29ba:	ef 90       	pop	r14
    29bc:	df 90       	pop	r13
    29be:	cf 90       	pop	r12
    29c0:	bf 90       	pop	r11
    29c2:	af 90       	pop	r10
    29c4:	9f 90       	pop	r9
    29c6:	8f 90       	pop	r8
    29c8:	7f 90       	pop	r7
    29ca:	6f 90       	pop	r6
    29cc:	5f 90       	pop	r5
    29ce:	08 95       	ret

000029d0 <isspace>:
    29d0:	91 11       	cpse	r25, r1
    29d2:	18 c1       	rjmp	.+560    	; 0x2c04 <__ctype_isfalse>
    29d4:	80 32       	cpi	r24, 0x20	; 32
    29d6:	19 f0       	breq	.+6      	; 0x29de <isspace+0xe>
    29d8:	89 50       	subi	r24, 0x09	; 9
    29da:	85 50       	subi	r24, 0x05	; 5
    29dc:	d0 f7       	brcc	.-12     	; 0x29d2 <isspace+0x2>
    29de:	08 95       	ret

000029e0 <strchr_P>:
    29e0:	fc 01       	movw	r30, r24
    29e2:	05 90       	lpm	r0, Z+
    29e4:	06 16       	cp	r0, r22
    29e6:	21 f0       	breq	.+8      	; 0x29f0 <strchr_P+0x10>
    29e8:	00 20       	and	r0, r0
    29ea:	d9 f7       	brne	.-10     	; 0x29e2 <strchr_P+0x2>
    29ec:	c0 01       	movw	r24, r0
    29ee:	08 95       	ret
    29f0:	31 97       	sbiw	r30, 0x01	; 1
    29f2:	cf 01       	movw	r24, r30
    29f4:	08 95       	ret

000029f6 <strnlen_P>:
    29f6:	fc 01       	movw	r30, r24
    29f8:	05 90       	lpm	r0, Z+
    29fa:	61 50       	subi	r22, 0x01	; 1
    29fc:	70 40       	sbci	r23, 0x00	; 0
    29fe:	01 10       	cpse	r0, r1
    2a00:	d8 f7       	brcc	.-10     	; 0x29f8 <strnlen_P+0x2>
    2a02:	80 95       	com	r24
    2a04:	90 95       	com	r25
    2a06:	8e 0f       	add	r24, r30
    2a08:	9f 1f       	adc	r25, r31
    2a0a:	08 95       	ret

00002a0c <strnlen>:
    2a0c:	fc 01       	movw	r30, r24
    2a0e:	61 50       	subi	r22, 0x01	; 1
    2a10:	70 40       	sbci	r23, 0x00	; 0
    2a12:	01 90       	ld	r0, Z+
    2a14:	01 10       	cpse	r0, r1
    2a16:	d8 f7       	brcc	.-10     	; 0x2a0e <strnlen+0x2>
    2a18:	80 95       	com	r24
    2a1a:	90 95       	com	r25
    2a1c:	8e 0f       	add	r24, r30
    2a1e:	9f 1f       	adc	r25, r31
    2a20:	08 95       	ret

00002a22 <fgetc>:
    2a22:	cf 93       	push	r28
    2a24:	df 93       	push	r29
    2a26:	ec 01       	movw	r28, r24
    2a28:	2b 81       	ldd	r18, Y+3	; 0x03
    2a2a:	20 ff       	sbrs	r18, 0
    2a2c:	33 c0       	rjmp	.+102    	; 0x2a94 <fgetc+0x72>
    2a2e:	26 ff       	sbrs	r18, 6
    2a30:	0a c0       	rjmp	.+20     	; 0x2a46 <fgetc+0x24>
    2a32:	2f 7b       	andi	r18, 0xBF	; 191
    2a34:	2b 83       	std	Y+3, r18	; 0x03
    2a36:	8e 81       	ldd	r24, Y+6	; 0x06
    2a38:	9f 81       	ldd	r25, Y+7	; 0x07
    2a3a:	01 96       	adiw	r24, 0x01	; 1
    2a3c:	9f 83       	std	Y+7, r25	; 0x07
    2a3e:	8e 83       	std	Y+6, r24	; 0x06
    2a40:	8a 81       	ldd	r24, Y+2	; 0x02
    2a42:	90 e0       	ldi	r25, 0x00	; 0
    2a44:	29 c0       	rjmp	.+82     	; 0x2a98 <fgetc+0x76>
    2a46:	22 ff       	sbrs	r18, 2
    2a48:	0f c0       	rjmp	.+30     	; 0x2a68 <fgetc+0x46>
    2a4a:	e8 81       	ld	r30, Y
    2a4c:	f9 81       	ldd	r31, Y+1	; 0x01
    2a4e:	80 81       	ld	r24, Z
    2a50:	08 2e       	mov	r0, r24
    2a52:	00 0c       	add	r0, r0
    2a54:	99 0b       	sbc	r25, r25
    2a56:	00 97       	sbiw	r24, 0x00	; 0
    2a58:	19 f4       	brne	.+6      	; 0x2a60 <fgetc+0x3e>
    2a5a:	20 62       	ori	r18, 0x20	; 32
    2a5c:	2b 83       	std	Y+3, r18	; 0x03
    2a5e:	1a c0       	rjmp	.+52     	; 0x2a94 <fgetc+0x72>
    2a60:	31 96       	adiw	r30, 0x01	; 1
    2a62:	f9 83       	std	Y+1, r31	; 0x01
    2a64:	e8 83       	st	Y, r30
    2a66:	0e c0       	rjmp	.+28     	; 0x2a84 <fgetc+0x62>
    2a68:	ea 85       	ldd	r30, Y+10	; 0x0a
    2a6a:	fb 85       	ldd	r31, Y+11	; 0x0b
    2a6c:	09 95       	icall
    2a6e:	97 ff       	sbrs	r25, 7
    2a70:	09 c0       	rjmp	.+18     	; 0x2a84 <fgetc+0x62>
    2a72:	2b 81       	ldd	r18, Y+3	; 0x03
    2a74:	01 96       	adiw	r24, 0x01	; 1
    2a76:	11 f0       	breq	.+4      	; 0x2a7c <fgetc+0x5a>
    2a78:	80 e2       	ldi	r24, 0x20	; 32
    2a7a:	01 c0       	rjmp	.+2      	; 0x2a7e <fgetc+0x5c>
    2a7c:	80 e1       	ldi	r24, 0x10	; 16
    2a7e:	82 2b       	or	r24, r18
    2a80:	8b 83       	std	Y+3, r24	; 0x03
    2a82:	08 c0       	rjmp	.+16     	; 0x2a94 <fgetc+0x72>
    2a84:	2e 81       	ldd	r18, Y+6	; 0x06
    2a86:	3f 81       	ldd	r19, Y+7	; 0x07
    2a88:	2f 5f       	subi	r18, 0xFF	; 255
    2a8a:	3f 4f       	sbci	r19, 0xFF	; 255
    2a8c:	3f 83       	std	Y+7, r19	; 0x07
    2a8e:	2e 83       	std	Y+6, r18	; 0x06
    2a90:	99 27       	eor	r25, r25
    2a92:	02 c0       	rjmp	.+4      	; 0x2a98 <fgetc+0x76>
    2a94:	8f ef       	ldi	r24, 0xFF	; 255
    2a96:	9f ef       	ldi	r25, 0xFF	; 255
    2a98:	df 91       	pop	r29
    2a9a:	cf 91       	pop	r28
    2a9c:	08 95       	ret

00002a9e <fputc>:
    2a9e:	0f 93       	push	r16
    2aa0:	1f 93       	push	r17
    2aa2:	cf 93       	push	r28
    2aa4:	df 93       	push	r29
    2aa6:	fb 01       	movw	r30, r22
    2aa8:	23 81       	ldd	r18, Z+3	; 0x03
    2aaa:	21 fd       	sbrc	r18, 1
    2aac:	03 c0       	rjmp	.+6      	; 0x2ab4 <fputc+0x16>
    2aae:	8f ef       	ldi	r24, 0xFF	; 255
    2ab0:	9f ef       	ldi	r25, 0xFF	; 255
    2ab2:	2c c0       	rjmp	.+88     	; 0x2b0c <fputc+0x6e>
    2ab4:	22 ff       	sbrs	r18, 2
    2ab6:	16 c0       	rjmp	.+44     	; 0x2ae4 <fputc+0x46>
    2ab8:	46 81       	ldd	r20, Z+6	; 0x06
    2aba:	57 81       	ldd	r21, Z+7	; 0x07
    2abc:	24 81       	ldd	r18, Z+4	; 0x04
    2abe:	35 81       	ldd	r19, Z+5	; 0x05
    2ac0:	42 17       	cp	r20, r18
    2ac2:	53 07       	cpc	r21, r19
    2ac4:	44 f4       	brge	.+16     	; 0x2ad6 <fputc+0x38>
    2ac6:	a0 81       	ld	r26, Z
    2ac8:	b1 81       	ldd	r27, Z+1	; 0x01
    2aca:	9d 01       	movw	r18, r26
    2acc:	2f 5f       	subi	r18, 0xFF	; 255
    2ace:	3f 4f       	sbci	r19, 0xFF	; 255
    2ad0:	31 83       	std	Z+1, r19	; 0x01
    2ad2:	20 83       	st	Z, r18
    2ad4:	8c 93       	st	X, r24
    2ad6:	26 81       	ldd	r18, Z+6	; 0x06
    2ad8:	37 81       	ldd	r19, Z+7	; 0x07
    2ada:	2f 5f       	subi	r18, 0xFF	; 255
    2adc:	3f 4f       	sbci	r19, 0xFF	; 255
    2ade:	37 83       	std	Z+7, r19	; 0x07
    2ae0:	26 83       	std	Z+6, r18	; 0x06
    2ae2:	14 c0       	rjmp	.+40     	; 0x2b0c <fputc+0x6e>
    2ae4:	8b 01       	movw	r16, r22
    2ae6:	ec 01       	movw	r28, r24
    2ae8:	fb 01       	movw	r30, r22
    2aea:	00 84       	ldd	r0, Z+8	; 0x08
    2aec:	f1 85       	ldd	r31, Z+9	; 0x09
    2aee:	e0 2d       	mov	r30, r0
    2af0:	09 95       	icall
    2af2:	89 2b       	or	r24, r25
    2af4:	e1 f6       	brne	.-72     	; 0x2aae <fputc+0x10>
    2af6:	d8 01       	movw	r26, r16
    2af8:	16 96       	adiw	r26, 0x06	; 6
    2afa:	8d 91       	ld	r24, X+
    2afc:	9c 91       	ld	r25, X
    2afe:	17 97       	sbiw	r26, 0x07	; 7
    2b00:	01 96       	adiw	r24, 0x01	; 1
    2b02:	17 96       	adiw	r26, 0x07	; 7
    2b04:	9c 93       	st	X, r25
    2b06:	8e 93       	st	-X, r24
    2b08:	16 97       	sbiw	r26, 0x06	; 6
    2b0a:	ce 01       	movw	r24, r28
    2b0c:	df 91       	pop	r29
    2b0e:	cf 91       	pop	r28
    2b10:	1f 91       	pop	r17
    2b12:	0f 91       	pop	r16
    2b14:	08 95       	ret

00002b16 <ungetc>:
    2b16:	fb 01       	movw	r30, r22
    2b18:	23 81       	ldd	r18, Z+3	; 0x03
    2b1a:	20 ff       	sbrs	r18, 0
    2b1c:	12 c0       	rjmp	.+36     	; 0x2b42 <ungetc+0x2c>
    2b1e:	26 fd       	sbrc	r18, 6
    2b20:	10 c0       	rjmp	.+32     	; 0x2b42 <ungetc+0x2c>
    2b22:	8f 3f       	cpi	r24, 0xFF	; 255
    2b24:	3f ef       	ldi	r19, 0xFF	; 255
    2b26:	93 07       	cpc	r25, r19
    2b28:	61 f0       	breq	.+24     	; 0x2b42 <ungetc+0x2c>
    2b2a:	82 83       	std	Z+2, r24	; 0x02
    2b2c:	2f 7d       	andi	r18, 0xDF	; 223
    2b2e:	20 64       	ori	r18, 0x40	; 64
    2b30:	23 83       	std	Z+3, r18	; 0x03
    2b32:	26 81       	ldd	r18, Z+6	; 0x06
    2b34:	37 81       	ldd	r19, Z+7	; 0x07
    2b36:	21 50       	subi	r18, 0x01	; 1
    2b38:	31 09       	sbc	r19, r1
    2b3a:	37 83       	std	Z+7, r19	; 0x07
    2b3c:	26 83       	std	Z+6, r18	; 0x06
    2b3e:	99 27       	eor	r25, r25
    2b40:	08 95       	ret
    2b42:	8f ef       	ldi	r24, 0xFF	; 255
    2b44:	9f ef       	ldi	r25, 0xFF	; 255
    2b46:	08 95       	ret

00002b48 <__ultoa_invert>:
    2b48:	fa 01       	movw	r30, r20
    2b4a:	aa 27       	eor	r26, r26
    2b4c:	28 30       	cpi	r18, 0x08	; 8
    2b4e:	51 f1       	breq	.+84     	; 0x2ba4 <__ultoa_invert+0x5c>
    2b50:	20 31       	cpi	r18, 0x10	; 16
    2b52:	81 f1       	breq	.+96     	; 0x2bb4 <__ultoa_invert+0x6c>
    2b54:	e8 94       	clt
    2b56:	6f 93       	push	r22
    2b58:	6e 7f       	andi	r22, 0xFE	; 254
    2b5a:	6e 5f       	subi	r22, 0xFE	; 254
    2b5c:	7f 4f       	sbci	r23, 0xFF	; 255
    2b5e:	8f 4f       	sbci	r24, 0xFF	; 255
    2b60:	9f 4f       	sbci	r25, 0xFF	; 255
    2b62:	af 4f       	sbci	r26, 0xFF	; 255
    2b64:	b1 e0       	ldi	r27, 0x01	; 1
    2b66:	3e d0       	rcall	.+124    	; 0x2be4 <__ultoa_invert+0x9c>
    2b68:	b4 e0       	ldi	r27, 0x04	; 4
    2b6a:	3c d0       	rcall	.+120    	; 0x2be4 <__ultoa_invert+0x9c>
    2b6c:	67 0f       	add	r22, r23
    2b6e:	78 1f       	adc	r23, r24
    2b70:	89 1f       	adc	r24, r25
    2b72:	9a 1f       	adc	r25, r26
    2b74:	a1 1d       	adc	r26, r1
    2b76:	68 0f       	add	r22, r24
    2b78:	79 1f       	adc	r23, r25
    2b7a:	8a 1f       	adc	r24, r26
    2b7c:	91 1d       	adc	r25, r1
    2b7e:	a1 1d       	adc	r26, r1
    2b80:	6a 0f       	add	r22, r26
    2b82:	71 1d       	adc	r23, r1
    2b84:	81 1d       	adc	r24, r1
    2b86:	91 1d       	adc	r25, r1
    2b88:	a1 1d       	adc	r26, r1
    2b8a:	20 d0       	rcall	.+64     	; 0x2bcc <__ultoa_invert+0x84>
    2b8c:	09 f4       	brne	.+2      	; 0x2b90 <__ultoa_invert+0x48>
    2b8e:	68 94       	set
    2b90:	3f 91       	pop	r19
    2b92:	2a e0       	ldi	r18, 0x0A	; 10
    2b94:	26 9f       	mul	r18, r22
    2b96:	11 24       	eor	r1, r1
    2b98:	30 19       	sub	r19, r0
    2b9a:	30 5d       	subi	r19, 0xD0	; 208
    2b9c:	31 93       	st	Z+, r19
    2b9e:	de f6       	brtc	.-74     	; 0x2b56 <__ultoa_invert+0xe>
    2ba0:	cf 01       	movw	r24, r30
    2ba2:	08 95       	ret
    2ba4:	46 2f       	mov	r20, r22
    2ba6:	47 70       	andi	r20, 0x07	; 7
    2ba8:	40 5d       	subi	r20, 0xD0	; 208
    2baa:	41 93       	st	Z+, r20
    2bac:	b3 e0       	ldi	r27, 0x03	; 3
    2bae:	0f d0       	rcall	.+30     	; 0x2bce <__ultoa_invert+0x86>
    2bb0:	c9 f7       	brne	.-14     	; 0x2ba4 <__ultoa_invert+0x5c>
    2bb2:	f6 cf       	rjmp	.-20     	; 0x2ba0 <__ultoa_invert+0x58>
    2bb4:	46 2f       	mov	r20, r22
    2bb6:	4f 70       	andi	r20, 0x0F	; 15
    2bb8:	40 5d       	subi	r20, 0xD0	; 208
    2bba:	4a 33       	cpi	r20, 0x3A	; 58
    2bbc:	18 f0       	brcs	.+6      	; 0x2bc4 <__ultoa_invert+0x7c>
    2bbe:	49 5d       	subi	r20, 0xD9	; 217
    2bc0:	31 fd       	sbrc	r19, 1
    2bc2:	40 52       	subi	r20, 0x20	; 32
    2bc4:	41 93       	st	Z+, r20
    2bc6:	02 d0       	rcall	.+4      	; 0x2bcc <__ultoa_invert+0x84>
    2bc8:	a9 f7       	brne	.-22     	; 0x2bb4 <__ultoa_invert+0x6c>
    2bca:	ea cf       	rjmp	.-44     	; 0x2ba0 <__ultoa_invert+0x58>
    2bcc:	b4 e0       	ldi	r27, 0x04	; 4
    2bce:	a6 95       	lsr	r26
    2bd0:	97 95       	ror	r25
    2bd2:	87 95       	ror	r24
    2bd4:	77 95       	ror	r23
    2bd6:	67 95       	ror	r22
    2bd8:	ba 95       	dec	r27
    2bda:	c9 f7       	brne	.-14     	; 0x2bce <__ultoa_invert+0x86>
    2bdc:	00 97       	sbiw	r24, 0x00	; 0
    2bde:	61 05       	cpc	r22, r1
    2be0:	71 05       	cpc	r23, r1
    2be2:	08 95       	ret
    2be4:	9b 01       	movw	r18, r22
    2be6:	ac 01       	movw	r20, r24
    2be8:	0a 2e       	mov	r0, r26
    2bea:	06 94       	lsr	r0
    2bec:	57 95       	ror	r21
    2bee:	47 95       	ror	r20
    2bf0:	37 95       	ror	r19
    2bf2:	27 95       	ror	r18
    2bf4:	ba 95       	dec	r27
    2bf6:	c9 f7       	brne	.-14     	; 0x2bea <__ultoa_invert+0xa2>
    2bf8:	62 0f       	add	r22, r18
    2bfa:	73 1f       	adc	r23, r19
    2bfc:	84 1f       	adc	r24, r20
    2bfe:	95 1f       	adc	r25, r21
    2c00:	a0 1d       	adc	r26, r0
    2c02:	08 95       	ret

00002c04 <__ctype_isfalse>:
    2c04:	99 27       	eor	r25, r25
    2c06:	88 27       	eor	r24, r24

00002c08 <__ctype_istrue>:
    2c08:	08 95       	ret

00002c0a <eeprom_read_block>:
    2c0a:	dc 01       	movw	r26, r24
    2c0c:	cb 01       	movw	r24, r22

00002c0e <eeprom_read_blraw>:
    2c0e:	fc 01       	movw	r30, r24
    2c10:	e1 99       	sbic	0x1c, 1	; 28
    2c12:	fe cf       	rjmp	.-4      	; 0x2c10 <eeprom_read_blraw+0x2>
    2c14:	06 c0       	rjmp	.+12     	; 0x2c22 <eeprom_read_blraw+0x14>
    2c16:	ff bb       	out	0x1f, r31	; 31
    2c18:	ee bb       	out	0x1e, r30	; 30
    2c1a:	e0 9a       	sbi	0x1c, 0	; 28
    2c1c:	31 96       	adiw	r30, 0x01	; 1
    2c1e:	0d b2       	in	r0, 0x1d	; 29
    2c20:	0d 92       	st	X+, r0
    2c22:	41 50       	subi	r20, 0x01	; 1
    2c24:	50 40       	sbci	r21, 0x00	; 0
    2c26:	b8 f7       	brcc	.-18     	; 0x2c16 <eeprom_read_blraw+0x8>
    2c28:	08 95       	ret

00002c2a <eeprom_write_block>:
    2c2a:	dc 01       	movw	r26, r24
    2c2c:	cb 01       	movw	r24, r22
    2c2e:	02 c0       	rjmp	.+4      	; 0x2c34 <eeprom_write_block+0xa>
    2c30:	2d 91       	ld	r18, X+
    2c32:	05 d0       	rcall	.+10     	; 0x2c3e <eeprom_write_r18>
    2c34:	41 50       	subi	r20, 0x01	; 1
    2c36:	50 40       	sbci	r21, 0x00	; 0
    2c38:	d8 f7       	brcc	.-10     	; 0x2c30 <eeprom_write_block+0x6>
    2c3a:	08 95       	ret

00002c3c <eeprom_write_byte>:
    2c3c:	26 2f       	mov	r18, r22

00002c3e <eeprom_write_r18>:
    2c3e:	e1 99       	sbic	0x1c, 1	; 28
    2c40:	fe cf       	rjmp	.-4      	; 0x2c3e <eeprom_write_r18>
    2c42:	9f bb       	out	0x1f, r25	; 31
    2c44:	8e bb       	out	0x1e, r24	; 30
    2c46:	2d bb       	out	0x1d, r18	; 29
    2c48:	0f b6       	in	r0, 0x3f	; 63
    2c4a:	f8 94       	cli
    2c4c:	e2 9a       	sbi	0x1c, 2	; 28
    2c4e:	e1 9a       	sbi	0x1c, 1	; 28
    2c50:	0f be       	out	0x3f, r0	; 63
    2c52:	01 96       	adiw	r24, 0x01	; 1
    2c54:	08 95       	ret

00002c56 <_exit>:
    2c56:	f8 94       	cli

00002c58 <__stop_program>:
    2c58:	ff cf       	rjmp	.-2      	; 0x2c58 <__stop_program>
